
kurs_work1.elf:     file format elf32-avr

Sections:
Idx Name          Size      VMA       LMA       File off  Algn
  0 .data         00000082  00800200  00003474  00003508  2**0
                  CONTENTS, ALLOC, LOAD, DATA
  1 .text         00003474  00000000  00000000  00000094  2**1
                  CONTENTS, ALLOC, LOAD, READONLY, CODE
  2 .bss          00000004  00800282  00800282  0000358a  2**0
                  ALLOC
  3 .comment      0000005c  00000000  00000000  0000358a  2**0
                  CONTENTS, READONLY
  4 .note.gnu.avr.deviceinfo 00000040  00000000  00000000  000035e8  2**2
                  CONTENTS, READONLY
  5 .debug_aranges 00000138  00000000  00000000  00003628  2**0
                  CONTENTS, READONLY, DEBUGGING
  6 .debug_info   00003eb1  00000000  00000000  00003760  2**0
                  CONTENTS, READONLY, DEBUGGING
  7 .debug_abbrev 00001262  00000000  00000000  00007611  2**0
                  CONTENTS, READONLY, DEBUGGING
  8 .debug_line   0000114b  00000000  00000000  00008873  2**0
                  CONTENTS, READONLY, DEBUGGING
  9 .debug_frame  0000044c  00000000  00000000  000099c0  2**2
                  CONTENTS, READONLY, DEBUGGING
 10 .debug_str    000009a1  00000000  00000000  00009e0c  2**0
                  CONTENTS, READONLY, DEBUGGING
 11 .debug_loc    0000183c  00000000  00000000  0000a7ad  2**0
                  CONTENTS, READONLY, DEBUGGING
 12 .debug_ranges 000000e8  00000000  00000000  0000bfe9  2**0
                  CONTENTS, READONLY, DEBUGGING

Disassembly of section .text:

00000000 <__vectors>:
       0:	71 c0       	rjmp	.+226    	; 0xe4 <__ctors_end>
       2:	00 00       	nop
       4:	8f c0       	rjmp	.+286    	; 0x124 <__bad_interrupt>
       6:	00 00       	nop
       8:	8d c0       	rjmp	.+282    	; 0x124 <__bad_interrupt>
       a:	00 00       	nop
       c:	8b c0       	rjmp	.+278    	; 0x124 <__bad_interrupt>
       e:	00 00       	nop
      10:	89 c0       	rjmp	.+274    	; 0x124 <__bad_interrupt>
      12:	00 00       	nop
      14:	87 c0       	rjmp	.+270    	; 0x124 <__bad_interrupt>
      16:	00 00       	nop
      18:	85 c0       	rjmp	.+266    	; 0x124 <__bad_interrupt>
      1a:	00 00       	nop
      1c:	83 c0       	rjmp	.+262    	; 0x124 <__bad_interrupt>
      1e:	00 00       	nop
      20:	81 c0       	rjmp	.+258    	; 0x124 <__bad_interrupt>
      22:	00 00       	nop
      24:	7f c0       	rjmp	.+254    	; 0x124 <__bad_interrupt>
      26:	00 00       	nop
      28:	7d c0       	rjmp	.+250    	; 0x124 <__bad_interrupt>
      2a:	00 00       	nop
      2c:	7b c0       	rjmp	.+246    	; 0x124 <__bad_interrupt>
      2e:	00 00       	nop
      30:	79 c0       	rjmp	.+242    	; 0x124 <__bad_interrupt>
      32:	00 00       	nop
      34:	77 c0       	rjmp	.+238    	; 0x124 <__bad_interrupt>
      36:	00 00       	nop
      38:	75 c0       	rjmp	.+234    	; 0x124 <__bad_interrupt>
      3a:	00 00       	nop
      3c:	73 c0       	rjmp	.+230    	; 0x124 <__bad_interrupt>
      3e:	00 00       	nop
      40:	71 c0       	rjmp	.+226    	; 0x124 <__bad_interrupt>
      42:	00 00       	nop
      44:	6f c0       	rjmp	.+222    	; 0x124 <__bad_interrupt>
      46:	00 00       	nop
      48:	6d c0       	rjmp	.+218    	; 0x124 <__bad_interrupt>
      4a:	00 00       	nop
      4c:	6b c0       	rjmp	.+214    	; 0x124 <__bad_interrupt>
      4e:	00 00       	nop
      50:	69 c0       	rjmp	.+210    	; 0x124 <__bad_interrupt>
      52:	00 00       	nop
      54:	67 c0       	rjmp	.+206    	; 0x124 <__bad_interrupt>
      56:	00 00       	nop
      58:	65 c0       	rjmp	.+202    	; 0x124 <__bad_interrupt>
      5a:	00 00       	nop
      5c:	63 c0       	rjmp	.+198    	; 0x124 <__bad_interrupt>
      5e:	00 00       	nop
      60:	61 c0       	rjmp	.+194    	; 0x124 <__bad_interrupt>
      62:	00 00       	nop
      64:	5f c0       	rjmp	.+190    	; 0x124 <__bad_interrupt>
      66:	00 00       	nop
      68:	5d c0       	rjmp	.+186    	; 0x124 <__bad_interrupt>
      6a:	00 00       	nop
      6c:	5b c0       	rjmp	.+182    	; 0x124 <__bad_interrupt>
      6e:	00 00       	nop
      70:	59 c0       	rjmp	.+178    	; 0x124 <__bad_interrupt>
      72:	00 00       	nop
      74:	57 c0       	rjmp	.+174    	; 0x124 <__bad_interrupt>
      76:	00 00       	nop
      78:	55 c0       	rjmp	.+170    	; 0x124 <__bad_interrupt>
      7a:	00 00       	nop
      7c:	53 c0       	rjmp	.+166    	; 0x124 <__bad_interrupt>
      7e:	00 00       	nop
      80:	51 c0       	rjmp	.+162    	; 0x124 <__bad_interrupt>
      82:	00 00       	nop
      84:	4f c0       	rjmp	.+158    	; 0x124 <__bad_interrupt>
      86:	00 00       	nop
      88:	4d c0       	rjmp	.+154    	; 0x124 <__bad_interrupt>
      8a:	00 00       	nop
      8c:	4b c0       	rjmp	.+150    	; 0x124 <__bad_interrupt>
      8e:	00 00       	nop
      90:	85 c1       	rjmp	.+778    	; 0x39c <__vector_36>
      92:	00 00       	nop
      94:	47 c0       	rjmp	.+142    	; 0x124 <__bad_interrupt>
      96:	00 00       	nop
      98:	45 c0       	rjmp	.+138    	; 0x124 <__bad_interrupt>
      9a:	00 00       	nop
      9c:	43 c0       	rjmp	.+134    	; 0x124 <__bad_interrupt>
      9e:	00 00       	nop
      a0:	41 c0       	rjmp	.+130    	; 0x124 <__bad_interrupt>
      a2:	00 00       	nop
      a4:	3f c0       	rjmp	.+126    	; 0x124 <__bad_interrupt>
      a6:	00 00       	nop
      a8:	3d c0       	rjmp	.+122    	; 0x124 <__bad_interrupt>
      aa:	00 00       	nop
      ac:	3b c0       	rjmp	.+118    	; 0x124 <__bad_interrupt>
      ae:	00 00       	nop
      b0:	39 c0       	rjmp	.+114    	; 0x124 <__bad_interrupt>
      b2:	00 00       	nop
      b4:	37 c0       	rjmp	.+110    	; 0x124 <__bad_interrupt>
      b6:	00 00       	nop
      b8:	35 c0       	rjmp	.+106    	; 0x124 <__bad_interrupt>
      ba:	00 00       	nop
      bc:	33 c0       	rjmp	.+102    	; 0x124 <__bad_interrupt>
      be:	00 00       	nop
      c0:	31 c0       	rjmp	.+98     	; 0x124 <__bad_interrupt>
      c2:	00 00       	nop
      c4:	2f c0       	rjmp	.+94     	; 0x124 <__bad_interrupt>
      c6:	00 00       	nop
      c8:	2d c0       	rjmp	.+90     	; 0x124 <__bad_interrupt>
      ca:	00 00       	nop
      cc:	2b c0       	rjmp	.+86     	; 0x124 <__bad_interrupt>
      ce:	00 00       	nop
      d0:	29 c0       	rjmp	.+82     	; 0x124 <__bad_interrupt>
      d2:	00 00       	nop
      d4:	27 c0       	rjmp	.+78     	; 0x124 <__bad_interrupt>
      d6:	00 00       	nop
      d8:	25 c0       	rjmp	.+74     	; 0x124 <__bad_interrupt>
      da:	00 00       	nop
      dc:	23 c0       	rjmp	.+70     	; 0x124 <__bad_interrupt>
      de:	00 00       	nop
      e0:	21 c0       	rjmp	.+66     	; 0x124 <__bad_interrupt>
	...

000000e4 <__ctors_end>:
      e4:	11 24       	eor	r1, r1
      e6:	1f be       	out	0x3f, r1	; 63
      e8:	cf ef       	ldi	r28, 0xFF	; 255
      ea:	d1 e2       	ldi	r29, 0x21	; 33
      ec:	de bf       	out	0x3e, r29	; 62
      ee:	cd bf       	out	0x3d, r28	; 61
      f0:	00 e0       	ldi	r16, 0x00	; 0
      f2:	0c bf       	out	0x3c, r16	; 60

000000f4 <__do_copy_data>:
      f4:	12 e0       	ldi	r17, 0x02	; 2
      f6:	a0 e0       	ldi	r26, 0x00	; 0
      f8:	b2 e0       	ldi	r27, 0x02	; 2
      fa:	e4 e7       	ldi	r30, 0x74	; 116
      fc:	f4 e3       	ldi	r31, 0x34	; 52
      fe:	00 e0       	ldi	r16, 0x00	; 0
     100:	0b bf       	out	0x3b, r16	; 59
     102:	02 c0       	rjmp	.+4      	; 0x108 <__do_copy_data+0x14>
     104:	07 90       	elpm	r0, Z+
     106:	0d 92       	st	X+, r0
     108:	a2 38       	cpi	r26, 0x82	; 130
     10a:	b1 07       	cpc	r27, r17
     10c:	d9 f7       	brne	.-10     	; 0x104 <__do_copy_data+0x10>

0000010e <__do_clear_bss>:
     10e:	22 e0       	ldi	r18, 0x02	; 2
     110:	a2 e8       	ldi	r26, 0x82	; 130
     112:	b2 e0       	ldi	r27, 0x02	; 2
     114:	01 c0       	rjmp	.+2      	; 0x118 <.do_clear_bss_start>

00000116 <.do_clear_bss_loop>:
     116:	1d 92       	st	X+, r1

00000118 <.do_clear_bss_start>:
     118:	a6 38       	cpi	r26, 0x86	; 134
     11a:	b2 07       	cpc	r27, r18
     11c:	e1 f7       	brne	.-8      	; 0x116 <.do_clear_bss_loop>
     11e:	fd d1       	rcall	.+1018   	; 0x51a <main>
     120:	0c 94 38 1a 	jmp	0x3470	; 0x3470 <_exit>

00000124 <__bad_interrupt>:
     124:	6d cf       	rjmp	.-294    	; 0x0 <__vectors>

00000126 <_Z8enc_grayh>:

#include "code_gray.h"

uint8_t enc_gray(uint8_t a)
{
	return a ^ (a >> 1);
     126:	28 2f       	mov	r18, r24
     128:	30 e0       	ldi	r19, 0x00	; 0
     12a:	35 95       	asr	r19
     12c:	27 95       	ror	r18
}
     12e:	82 27       	eor	r24, r18
     130:	08 95       	ret

00000132 <_Z8dec_grayh>:

uint8_t dec_gray(uint8_t b)
{
	uint8_t rez;
	for(rez = 0 ; b; b >>= 1)
     132:	20 e0       	ldi	r18, 0x00	; 0
     134:	88 23       	and	r24, r24
     136:	29 f0       	breq	.+10     	; 0x142 <_Z8dec_grayh+0x10>
	{
		rez ^= b;
     138:	28 27       	eor	r18, r24
}

uint8_t dec_gray(uint8_t b)
{
	uint8_t rez;
	for(rez = 0 ; b; b >>= 1)
     13a:	90 e0       	ldi	r25, 0x00	; 0
     13c:	95 95       	asr	r25
     13e:	87 95       	ror	r24
     140:	f9 cf       	rjmp	.-14     	; 0x134 <_Z8dec_grayh+0x2>
	{
		rez ^= b;
	}
	return rez;
     142:	82 2f       	mov	r24, r18
     144:	08 95       	ret

00000146 <_Z9port_initv>:

#include "display.h"

void port_init()
{
	PORTCONTROL &= (~(1 << E)) & (~(1 << RW)) & (~(1 << RS));
     146:	88 b1       	in	r24, 0x08	; 8
     148:	8f 72       	andi	r24, 0x2F	; 47
     14a:	88 b9       	out	0x08, r24	; 8
	DDRTCONTROL |= (1 << E) | (1 << RW) | (1 << RS); //control port init (1 = output)
     14c:	87 b1       	in	r24, 0x07	; 7
     14e:	80 6d       	ori	r24, 0xD0	; 208
     150:	87 b9       	out	0x07, r24	; 7
	PORTDATA = 0x00;
     152:	12 b8       	out	0x02, r1	; 2
	DDRDATA = 0b11111111;    //data port init (1 = output)
     154:	8f ef       	ldi	r24, 0xFF	; 255
     156:	81 b9       	out	0x01, r24	; 1
     158:	08 95       	ret

0000015a <_Z15display_commandh>:
}

void display_command(unsigned char c)
{
	PORTDATA = 0b00000000;
     15a:	12 b8       	out	0x02, r1	; 2
	PORTCONTROL = (1 << E);
     15c:	90 e4       	ldi	r25, 0x40	; 64
     15e:	98 b9       	out	0x08, r25	; 8
	#else
		//round up by default
		__ticks_dc = (uint32_t)(ceil(fabs(__tmp)));
	#endif

	__builtin_avr_delay_cycles(__ticks_dc);
     160:	e7 ec       	ldi	r30, 0xC7	; 199
     162:	f0 e0       	ldi	r31, 0x00	; 0
     164:	31 97       	sbiw	r30, 0x01	; 1
     166:	f1 f7       	brne	.-4      	; 0x164 <_Z15display_commandh+0xa>
     168:	00 c0       	rjmp	.+0      	; 0x16a <_Z15display_commandh+0x10>
     16a:	00 00       	nop
	_delay_us(50);
	PORTCONTROL|= (~(1 << RS)) & (~(1 << RW));
     16c:	98 b1       	in	r25, 0x08	; 8
     16e:	9f 66       	ori	r25, 0x6F	; 111
     170:	98 b9       	out	0x08, r25	; 8
	PORTDATA |= c;
     172:	92 b1       	in	r25, 0x02	; 2
     174:	89 2b       	or	r24, r25
     176:	82 b9       	out	0x02, r24	; 2
	PORTCONTROL &= ~(1 << E);
     178:	88 b1       	in	r24, 0x08	; 8
     17a:	8f 7b       	andi	r24, 0xBF	; 191
     17c:	88 b9       	out	0x08, r24	; 8
     17e:	8f e8       	ldi	r24, 0x8F	; 143
     180:	91 e0       	ldi	r25, 0x01	; 1
     182:	01 97       	sbiw	r24, 0x01	; 1
     184:	f1 f7       	brne	.-4      	; 0x182 <_Z15display_commandh+0x28>
     186:	00 c0       	rjmp	.+0      	; 0x188 <_Z15display_commandh+0x2e>
     188:	00 00       	nop
     18a:	08 95       	ret

0000018c <_Z12display_initv>:
	_delay_us(100);
}

void display_init()
{
	display_command(0b00111000); 
     18c:	88 e3       	ldi	r24, 0x38	; 56
     18e:	e5 df       	rcall	.-54     	; 0x15a <_Z15display_commandh>
	display_command(0b00001100); 
     190:	8c e0       	ldi	r24, 0x0C	; 12
     192:	e3 df       	rcall	.-58     	; 0x15a <_Z15display_commandh>
	display_command(0b00000110);
     194:	86 e0       	ldi	r24, 0x06	; 6
     196:	e1 df       	rcall	.-62     	; 0x15a <_Z15display_commandh>
	display_command(0b00010100); 
     198:	84 e1       	ldi	r24, 0x14	; 20
     19a:	df df       	rcall	.-66     	; 0x15a <_Z15display_commandh>
	display_command(0b00000010); 
     19c:	82 e0       	ldi	r24, 0x02	; 2
     19e:	dd df       	rcall	.-70     	; 0x15a <_Z15display_commandh>
     1a0:	8f e1       	ldi	r24, 0x1F	; 31
	#else
		//round up by default
		__ticks_dc = (uint32_t)(ceil(fabs(__tmp)));
	#endif

	__builtin_avr_delay_cycles(__ticks_dc);
     1a2:	9e e4       	ldi	r25, 0x4E	; 78
     1a4:	01 97       	sbiw	r24, 0x01	; 1
     1a6:	f1 f7       	brne	.-4      	; 0x1a4 <_Z12display_initv+0x18>
     1a8:	00 c0       	rjmp	.+0      	; 0x1aa <_Z12display_initv+0x1e>
     1aa:	00 00       	nop
     1ac:	08 95       	ret

000001ae <_Z13display_clearv>:
     1ae:	12 b8       	out	0x02, r1	; 2
}

void display_clear()
{
	PORTDATA = 0b00000000;
	PORTCONTROL = (1 << E);
     1b0:	80 e4       	ldi	r24, 0x40	; 64
     1b2:	88 b9       	out	0x08, r24	; 8
	#else
		//round up by default
		__ticks_dc = (uint32_t)(ceil(fabs(__tmp)));
	#endif

	__builtin_avr_delay_cycles(__ticks_dc);
     1b4:	87 ec       	ldi	r24, 0xC7	; 199
     1b6:	90 e0       	ldi	r25, 0x00	; 0
     1b8:	01 97       	sbiw	r24, 0x01	; 1
     1ba:	f1 f7       	brne	.-4      	; 0x1b8 <_Z13display_clearv+0xa>
     1bc:	00 c0       	rjmp	.+0      	; 0x1be <_Z13display_clearv+0x10>
     1be:	00 00       	nop
	_delay_us(50);
	PORTCONTROL|= (~(1 << RS)) & (~(1 << RW));
     1c0:	88 b1       	in	r24, 0x08	; 8
     1c2:	8f 66       	ori	r24, 0x6F	; 111
     1c4:	88 b9       	out	0x08, r24	; 8
	PORTDATA |= 0b000000001;
     1c6:	82 b1       	in	r24, 0x02	; 2
     1c8:	81 60       	ori	r24, 0x01	; 1
     1ca:	82 b9       	out	0x02, r24	; 2
	PORTCONTROL &= ~(1 << E);
     1cc:	88 b1       	in	r24, 0x08	; 8
     1ce:	8f 7b       	andi	r24, 0xBF	; 191
     1d0:	88 b9       	out	0x08, r24	; 8
	#else
		//round up by default
		__ticks_dc = (uint32_t)(ceil(fabs(__tmp)));
	#endif

	__builtin_avr_delay_cycles(__ticks_dc);
     1d2:	8f e1       	ldi	r24, 0x1F	; 31
     1d4:	9e e4       	ldi	r25, 0x4E	; 78
     1d6:	01 97       	sbiw	r24, 0x01	; 1
     1d8:	f1 f7       	brne	.-4      	; 0x1d6 <_Z13display_clearv+0x28>
     1da:	00 c0       	rjmp	.+0      	; 0x1dc <_Z13display_clearv+0x2e>
     1dc:	00 00       	nop
     1de:	08 95       	ret

000001e0 <_Z15cursor_positionhh>:
	_delay_ms(5);
}

void cursor_position(unsigned char x, unsigned char y)
{
	PORTDATA = 0b00000000;
     1e0:	12 b8       	out	0x02, r1	; 2
	PORTCONTROL = (1 << E);
     1e2:	90 e4       	ldi	r25, 0x40	; 64
     1e4:	98 b9       	out	0x08, r25	; 8
	#else
		//round up by default
		__ticks_dc = (uint32_t)(ceil(fabs(__tmp)));
	#endif

	__builtin_avr_delay_cycles(__ticks_dc);
     1e6:	e7 e1       	ldi	r30, 0x17	; 23
     1e8:	f1 e0       	ldi	r31, 0x01	; 1
     1ea:	31 97       	sbiw	r30, 0x01	; 1
     1ec:	f1 f7       	brne	.-4      	; 0x1ea <_Z15cursor_positionhh+0xa>
     1ee:	00 c0       	rjmp	.+0      	; 0x1f0 <_Z15cursor_positionhh+0x10>
     1f0:	00 00       	nop
	_delay_us(70);
	PORTCONTROL|= (~(1 << RS)) & (~(1 << RW));
     1f2:	98 b1       	in	r25, 0x08	; 8
     1f4:	9f 66       	ori	r25, 0x6F	; 111
     1f6:	98 b9       	out	0x08, r25	; 8
	PORTDATA = (0x40 * y + x)|0b10000000;
     1f8:	f0 e4       	ldi	r31, 0x40	; 64
     1fa:	6f 9f       	mul	r22, r31
     1fc:	80 0d       	add	r24, r0
     1fe:	11 24       	eor	r1, r1
     200:	80 68       	ori	r24, 0x80	; 128
     202:	82 b9       	out	0x02, r24	; 2
	PORTCONTROL &= ~(1 << E);
     204:	88 b1       	in	r24, 0x08	; 8
     206:	8f 7b       	andi	r24, 0xBF	; 191
     208:	88 b9       	out	0x08, r24	; 8
     20a:	87 e1       	ldi	r24, 0x17	; 23
     20c:	91 e0       	ldi	r25, 0x01	; 1
     20e:	01 97       	sbiw	r24, 0x01	; 1
     210:	f1 f7       	brne	.-4      	; 0x20e <_Z15cursor_positionhh+0x2e>
     212:	00 c0       	rjmp	.+0      	; 0x214 <_Z15cursor_positionhh+0x34>
     214:	00 00       	nop
     216:	08 95       	ret

00000218 <_Z12display_sendPhhh>:
	_delay_us(70);
}
 
void display_send(unsigned char *mess, unsigned char x, unsigned char y)
{
     218:	cf 93       	push	r28
     21a:	df 93       	push	r29
     21c:	ec 01       	movw	r28, r24
     21e:	86 2f       	mov	r24, r22
	cursor_position(x, y);
     220:	64 2f       	mov	r22, r20
     222:	de df       	rcall	.-68     	; 0x1e0 <_Z15cursor_positionhh>
	for(int i = 0; i < (int)strlen((char*)mess); i++)
     224:	80 e0       	ldi	r24, 0x00	; 0
     226:	90 e0       	ldi	r25, 0x00	; 0
     228:	fe 01       	movw	r30, r28
     22a:	01 90       	ld	r0, Z+
     22c:	00 20       	and	r0, r0
     22e:	e9 f7       	brne	.-6      	; 0x22a <_Z12display_sendPhhh+0x12>
     230:	31 97       	sbiw	r30, 0x01	; 1
     232:	ec 1b       	sub	r30, r28
     234:	fd 0b       	sbc	r31, r29
     236:	8e 17       	cp	r24, r30
     238:	9f 07       	cpc	r25, r31
     23a:	1c f5       	brge	.+70     	; 0x282 <_Z12display_sendPhhh+0x6a>
	{
		PORTDATA = 0b00000000;
     23c:	12 b8       	out	0x02, r1	; 2
		PORTCONTROL = (1 << E);
     23e:	20 e4       	ldi	r18, 0x40	; 64
     240:	28 b9       	out	0x08, r18	; 8
     242:	e7 e1       	ldi	r30, 0x17	; 23
     244:	f1 e0       	ldi	r31, 0x01	; 1
     246:	31 97       	sbiw	r30, 0x01	; 1
     248:	f1 f7       	brne	.-4      	; 0x246 <_Z12display_sendPhhh+0x2e>
     24a:	00 c0       	rjmp	.+0      	; 0x24c <_Z12display_sendPhhh+0x34>
     24c:	00 00       	nop
		_delay_us(70);
		PORTCONTROL |= (1 << RS);
     24e:	28 b1       	in	r18, 0x08	; 8
     250:	20 61       	ori	r18, 0x10	; 16
     252:	28 b9       	out	0x08, r18	; 8
		PORTDATA |= (char)mess[i];
     254:	32 b1       	in	r19, 0x02	; 2
     256:	fe 01       	movw	r30, r28
     258:	e8 0f       	add	r30, r24
     25a:	f9 1f       	adc	r31, r25
     25c:	20 81       	ld	r18, Z
     25e:	23 2b       	or	r18, r19
     260:	22 b9       	out	0x02, r18	; 2
     262:	e7 e1       	ldi	r30, 0x17	; 23
     264:	f1 e0       	ldi	r31, 0x01	; 1
     266:	31 97       	sbiw	r30, 0x01	; 1
     268:	f1 f7       	brne	.-4      	; 0x266 <_Z12display_sendPhhh+0x4e>
     26a:	00 c0       	rjmp	.+0      	; 0x26c <_Z12display_sendPhhh+0x54>
     26c:	00 00       	nop
		_delay_us(70);
		PORTCONTROL  = ~(1 << E);
     26e:	2f eb       	ldi	r18, 0xBF	; 191
     270:	28 b9       	out	0x08, r18	; 8
     272:	ef e8       	ldi	r30, 0x8F	; 143
     274:	f1 e0       	ldi	r31, 0x01	; 1
     276:	31 97       	sbiw	r30, 0x01	; 1
     278:	f1 f7       	brne	.-4      	; 0x276 <_Z12display_sendPhhh+0x5e>
     27a:	00 c0       	rjmp	.+0      	; 0x27c <_Z12display_sendPhhh+0x64>
     27c:	00 00       	nop
}
 
void display_send(unsigned char *mess, unsigned char x, unsigned char y)
{
	cursor_position(x, y);
	for(int i = 0; i < (int)strlen((char*)mess); i++)
     27e:	01 96       	adiw	r24, 0x01	; 1
     280:	d3 cf       	rjmp	.-90     	; 0x228 <_Z12display_sendPhhh+0x10>
		PORTDATA |= (char)mess[i];
		_delay_us(70);
		PORTCONTROL  = ~(1 << E);
		_delay_us(100);
	}
     282:	df 91       	pop	r29
     284:	cf 91       	pop	r28
     286:	08 95       	ret

00000288 <_Z14lightIndicatorv>:

#include "main.h"

void lightIndicator()
{
	DDRB = (1<<PB7);
     288:	80 e8       	ldi	r24, 0x80	; 128
     28a:	84 b9       	out	0x04, r24	; 4
	PORTB = (1 << PB7);
     28c:	85 b9       	out	0x05, r24	; 5
	#else
		//round up by default
		__ticks_dc = (uint32_t)(ceil(fabs(__tmp)));
	#endif

	__builtin_avr_delay_cycles(__ticks_dc);
     28e:	2f ef       	ldi	r18, 0xFF	; 255
     290:	34 e3       	ldi	r19, 0x34	; 52
     292:	9c e0       	ldi	r25, 0x0C	; 12
     294:	21 50       	subi	r18, 0x01	; 1
     296:	30 40       	sbci	r19, 0x00	; 0
     298:	90 40       	sbci	r25, 0x00	; 0
     29a:	e1 f7       	brne	.-8      	; 0x294 <_Z14lightIndicatorv+0xc>
     29c:	00 c0       	rjmp	.+0      	; 0x29e <_Z14lightIndicatorv+0x16>
     29e:	00 00       	nop
	_delay_ms(250);
	PORTB = (0 << PB7);
     2a0:	15 b8       	out	0x05, r1	; 5
     2a2:	2f ef       	ldi	r18, 0xFF	; 255
     2a4:	30 e7       	ldi	r19, 0x70	; 112
     2a6:	92 e0       	ldi	r25, 0x02	; 2
     2a8:	21 50       	subi	r18, 0x01	; 1
     2aa:	30 40       	sbci	r19, 0x00	; 0
     2ac:	90 40       	sbci	r25, 0x00	; 0
     2ae:	e1 f7       	brne	.-8      	; 0x2a8 <_Z14lightIndicatorv+0x20>
     2b0:	00 c0       	rjmp	.+0      	; 0x2b2 <_Z14lightIndicatorv+0x2a>
     2b2:	00 00       	nop
	_delay_ms(50);
	PORTB = (1 << PB7);
     2b4:	85 b9       	out	0x05, r24	; 5
     2b6:	2f ef       	ldi	r18, 0xFF	; 255
     2b8:	34 e3       	ldi	r19, 0x34	; 52
     2ba:	8c e0       	ldi	r24, 0x0C	; 12
     2bc:	21 50       	subi	r18, 0x01	; 1
     2be:	30 40       	sbci	r19, 0x00	; 0
     2c0:	80 40       	sbci	r24, 0x00	; 0
     2c2:	e1 f7       	brne	.-8      	; 0x2bc <_Z14lightIndicatorv+0x34>
     2c4:	00 c0       	rjmp	.+0      	; 0x2c6 <_Z14lightIndicatorv+0x3e>
     2c6:	00 00       	nop
	_delay_ms(250);
	PORTB = (0 << PB7);
     2c8:	15 b8       	out	0x05, r1	; 5
     2ca:	9f ef       	ldi	r25, 0xFF	; 255
     2cc:	27 ea       	ldi	r18, 0xA7	; 167
     2ce:	31 e6       	ldi	r19, 0x61	; 97
     2d0:	91 50       	subi	r25, 0x01	; 1
     2d2:	20 40       	sbci	r18, 0x00	; 0
     2d4:	30 40       	sbci	r19, 0x00	; 0
     2d6:	e1 f7       	brne	.-8      	; 0x2d0 <_Z14lightIndicatorv+0x48>
     2d8:	00 c0       	rjmp	.+0      	; 0x2da <_Z14lightIndicatorv+0x52>
     2da:	00 00       	nop
     2dc:	08 95       	ret

000002de <_Z15sendTestMessagePh>:
	_delay_ms(2000);
}

void sendTestMessage(unsigned char *str)
{	
     2de:	0f 93       	push	r16
     2e0:	1f 93       	push	r17
     2e2:	cf 93       	push	r28
     2e4:	df 93       	push	r29
     2e6:	8c 01       	movw	r16, r24
	for(int i = 0; i < (int)strlen((char*)str); i++)
     2e8:	c0 e0       	ldi	r28, 0x00	; 0
     2ea:	d0 e0       	ldi	r29, 0x00	; 0
     2ec:	f8 01       	movw	r30, r16
     2ee:	01 90       	ld	r0, Z+
     2f0:	00 20       	and	r0, r0
     2f2:	e9 f7       	brne	.-6      	; 0x2ee <_Z15sendTestMessagePh+0x10>
     2f4:	31 97       	sbiw	r30, 0x01	; 1
     2f6:	e0 1b       	sub	r30, r16
     2f8:	f1 0b       	sbc	r31, r17
     2fa:	ce 17       	cp	r28, r30
     2fc:	df 07       	cpc	r29, r31
     2fe:	44 f4       	brge	.+16     	; 0x310 <_Z15sendTestMessagePh+0x32>
	{
		USART_TX(str[i]);
     300:	f8 01       	movw	r30, r16
     302:	ec 0f       	add	r30, r28
     304:	fd 1f       	adc	r31, r29
     306:	80 81       	ld	r24, Z
     308:	0e 94 17 16 	call	0x2c2e	; 0x2c2e <_Z8USART_TXh>
	_delay_ms(2000);
}

void sendTestMessage(unsigned char *str)
{	
	for(int i = 0; i < (int)strlen((char*)str); i++)
     30c:	21 96       	adiw	r28, 0x01	; 1
     30e:	ee cf       	rjmp	.-36     	; 0x2ec <_Z15sendTestMessagePh+0xe>
	{
		USART_TX(str[i]);
	}
}
     310:	df 91       	pop	r29
     312:	cf 91       	pop	r28
     314:	1f 91       	pop	r17
     316:	0f 91       	pop	r16
     318:	08 95       	ret

0000031a <_Z13read_encodersPcS_>:
		USART_TX(0x0a);//переход на новую строку
	}
}

void read_encoders(char* es6p1, char* es6p2)
{
     31a:	df 92       	push	r13
     31c:	ef 92       	push	r14
     31e:	ff 92       	push	r15
     320:	0f 93       	push	r16
     322:	1f 93       	push	r17
     324:	cf 93       	push	r28
     326:	df 93       	push	r29
     328:	e8 2e       	mov	r14, r24
     32a:	d9 2e       	mov	r13, r25
     32c:	16 2f       	mov	r17, r22
     32e:	07 2f       	mov	r16, r23
	char* str1  = (char*)"BVG: ";
	char* str2 = (char*)"BFG: ";
	const uint8_t smech = 80; //смещение
	enc1 = 15 + smech;									
	enc2 = 10 + smech;									
	enc1 = enc_gray(enc1);						
     330:	8f e5       	ldi	r24, 0x5F	; 95
     332:	f9 de       	rcall	.-526    	; 0x126 <_Z8enc_grayh>
     334:	c8 2f       	mov	r28, r24
	enc2 = enc_gray(enc2);						
     336:	8a e5       	ldi	r24, 0x5A	; 90
     338:	f6 de       	rcall	.-532    	; 0x126 <_Z8enc_grayh>
     33a:	d8 2f       	mov	r29, r24
	
	enc11 =  dec_gray(enc1);					
     33c:	8c 2f       	mov	r24, r28
     33e:	f9 de       	rcall	.-526    	; 0x132 <_Z8dec_grayh>
     340:	c8 2f       	mov	r28, r24
	enc22 = dec_gray(enc2);						
     342:	8d 2f       	mov	r24, r29
     344:	f6 de       	rcall	.-532    	; 0x132 <_Z8dec_grayh>
     346:	f8 2e       	mov	r15, r24
     348:	1f 92       	push	r1
	sprintf(es6p1, "%s%d", str1, (int)enc11);	
     34a:	cf 93       	push	r28
     34c:	86 e0       	ldi	r24, 0x06	; 6
     34e:	92 e0       	ldi	r25, 0x02	; 2
     350:	9f 93       	push	r25
     352:	8f 93       	push	r24
     354:	cc e0       	ldi	r28, 0x0C	; 12
     356:	d2 e0       	ldi	r29, 0x02	; 2
     358:	df 93       	push	r29
     35a:	cf 93       	push	r28
     35c:	df 92       	push	r13
     35e:	ef 92       	push	r14
     360:	0e 94 5d 17 	call	0x2eba	; 0x2eba <sprintf>
     364:	1f 92       	push	r1
	sprintf(es6p2, "%s%d", str2, (int)enc22);	
     366:	ff 92       	push	r15
     368:	81 e1       	ldi	r24, 0x11	; 17
     36a:	92 e0       	ldi	r25, 0x02	; 2
     36c:	9f 93       	push	r25
     36e:	8f 93       	push	r24
     370:	df 93       	push	r29
     372:	cf 93       	push	r28
     374:	0f 93       	push	r16
     376:	1f 93       	push	r17
     378:	0e 94 5d 17 	call	0x2eba	; 0x2eba <sprintf>
     37c:	8d b7       	in	r24, 0x3d	; 61
}
     37e:	9e b7       	in	r25, 0x3e	; 62
     380:	40 96       	adiw	r24, 0x10	; 16
     382:	0f b6       	in	r0, 0x3f	; 63
     384:	f8 94       	cli
     386:	9e bf       	out	0x3e, r25	; 62
     388:	0f be       	out	0x3f, r0	; 63
     38a:	8d bf       	out	0x3d, r24	; 61
     38c:	df 91       	pop	r29
     38e:	cf 91       	pop	r28
     390:	1f 91       	pop	r17
     392:	0f 91       	pop	r16
     394:	ff 90       	pop	r15
     396:	ef 90       	pop	r14
     398:	df 90       	pop	r13
     39a:	08 95       	ret

0000039c <__vector_36>:
     39c:	1f 92       	push	r1
		USART_TX(str[i]);
	}
}

ISR(USART1_RX_vect)
{	
     39e:	0f 92       	push	r0
     3a0:	0f b6       	in	r0, 0x3f	; 63
     3a2:	0f 92       	push	r0
     3a4:	11 24       	eor	r1, r1
     3a6:	0b b6       	in	r0, 0x3b	; 59
     3a8:	0f 92       	push	r0
     3aa:	ef 92       	push	r14
     3ac:	ff 92       	push	r15
     3ae:	0f 93       	push	r16
     3b0:	1f 93       	push	r17
     3b2:	2f 93       	push	r18
     3b4:	3f 93       	push	r19
     3b6:	4f 93       	push	r20
     3b8:	5f 93       	push	r21
     3ba:	6f 93       	push	r22
     3bc:	7f 93       	push	r23
     3be:	8f 93       	push	r24
     3c0:	9f 93       	push	r25
     3c2:	af 93       	push	r26
     3c4:	bf 93       	push	r27
     3c6:	ef 93       	push	r30
     3c8:	ff 93       	push	r31
     3ca:	cf 93       	push	r28
     3cc:	df 93       	push	r29
     3ce:	cd b7       	in	r28, 0x3d	; 61
     3d0:	de b7       	in	r29, 0x3e	; 62
     3d2:	ca 54       	subi	r28, 0x4A	; 74
     3d4:	d1 09       	sbc	r29, r1
     3d6:	de bf       	out	0x3e, r29	; 62
     3d8:	cd bf       	out	0x3d, r28	; 61
	char request = (char)UDR1;
     3da:	10 91 ce 00 	lds	r17, 0x00CE	; 0x8000ce <__TEXT_REGION_LENGTH__+0x7c00ce>
	USART_TX(0x0d);//переход в начало строки
     3de:	8d e0       	ldi	r24, 0x0D	; 13
     3e0:	0e 94 17 16 	call	0x2c2e	; 0x2c2e <_Z8USART_TXh>
	USART_TX(0x0a);//переход на новую строку
     3e4:	8a e0       	ldi	r24, 0x0A	; 10
     3e6:	0e 94 17 16 	call	0x2c2e	; 0x2c2e <_Z8USART_TXh>
	if(request == '1')
     3ea:	11 33       	cpi	r17, 0x31	; 49
     3ec:	09 f0       	breq	.+2      	; 0x3f0 <__vector_36+0x54>
     3ee:	60 c0       	rjmp	.+192    	; 0x4b0 <__LOCK_REGION_LENGTH__+0xb0>
	{
		char es6p1[16];
		char es6p2[16];
		read_encoders(es6p1, es6p2);
     3f0:	7e 01       	movw	r14, r28
     3f2:	81 e2       	ldi	r24, 0x21	; 33
     3f4:	e8 0e       	add	r14, r24
     3f6:	f1 1c       	adc	r15, r1
     3f8:	8e 01       	movw	r16, r28
     3fa:	0f 5c       	subi	r16, 0xCF	; 207
     3fc:	1f 4f       	sbci	r17, 0xFF	; 255
     3fe:	b7 01       	movw	r22, r14
     400:	c8 01       	movw	r24, r16
     402:	8b df       	rcall	.-234    	; 0x31a <_Z13read_encodersPcS_>
		char trsmt[32];
		sprintf(trsmt, "%s %s", es6p1, es6p2);
     404:	ff 92       	push	r15
     406:	ef 92       	push	r14
     408:	1f 93       	push	r17
     40a:	0f 93       	push	r16
     40c:	87 e1       	ldi	r24, 0x17	; 23
     40e:	92 e0       	ldi	r25, 0x02	; 2
     410:	9f 93       	push	r25
     412:	8f 93       	push	r24
     414:	00 53       	subi	r16, 0x30	; 48
     416:	11 09       	sbc	r17, r1
     418:	1f 93       	push	r17
     41a:	0f 93       	push	r16
     41c:	0e 94 5d 17 	call	0x2eba	; 0x2eba <sprintf>
		char* hashtr = (char*)gethash_md5((unsigned char*)trsmt, (int)strlen(trsmt) );
     420:	f8 01       	movw	r30, r16
     422:	01 90       	ld	r0, Z+
     424:	00 20       	and	r0, r0
     426:	e9 f7       	brne	.-6      	; 0x422 <__LOCK_REGION_LENGTH__+0x22>
     428:	31 97       	sbiw	r30, 0x01	; 1
     42a:	bf 01       	movw	r22, r30
     42c:	60 1b       	sub	r22, r16
     42e:	71 0b       	sbc	r23, r17
     430:	c8 01       	movw	r24, r16
     432:	70 d2       	rcall	.+1248   	; 0x914 <_Z11gethash_md5Phi>
     434:	7c 01       	movw	r14, r24
		sendTestMessage((unsigned char*)"data: ");
     436:	82 e2       	ldi	r24, 0x22	; 34
     438:	92 e0       	ldi	r25, 0x02	; 2
		sendTestMessage((unsigned char*)trsmt);
     43a:	51 df       	rcall	.-350    	; 0x2de <_Z15sendTestMessagePh>
     43c:	c8 01       	movw	r24, r16
     43e:	4f df       	rcall	.-354    	; 0x2de <_Z15sendTestMessagePh>
		USART_TX(0x0d);//переход в начало строки
     440:	8d e0       	ldi	r24, 0x0D	; 13
     442:	0e 94 17 16 	call	0x2c2e	; 0x2c2e <_Z8USART_TXh>
		USART_TX(0x0a);//переход на новую строку
     446:	8a e0       	ldi	r24, 0x0A	; 10
     448:	0e 94 17 16 	call	0x2c2e	; 0x2c2e <_Z8USART_TXh>
		sendTestMessage((unsigned char*)"hash data: ");
     44c:	8d e1       	ldi	r24, 0x1D	; 29
     44e:	92 e0       	ldi	r25, 0x02	; 2
		sendTestMessage((unsigned char*)hashtr);
     450:	46 df       	rcall	.-372    	; 0x2de <_Z15sendTestMessagePh>
     452:	c7 01       	movw	r24, r14
     454:	44 df       	rcall	.-376    	; 0x2de <_Z15sendTestMessagePh>
		USART_TX(0x0d);//переход в начало строки
     456:	8d e0       	ldi	r24, 0x0D	; 13
     458:	0e 94 17 16 	call	0x2c2e	; 0x2c2e <_Z8USART_TXh>
		USART_TX(0x0a);//переход на новую строку
     45c:	8a e0       	ldi	r24, 0x0A	; 10
     45e:	0e 94 17 16 	call	0x2c2e	; 0x2c2e <_Z8USART_TXh>
		sendTestMessage((unsigned char*)"stlen: ");
     462:	89 e2       	ldi	r24, 0x29	; 41
     464:	92 e0       	ldi	r25, 0x02	; 2
     466:	3b df       	rcall	.-394    	; 0x2de <_Z15sendTestMessagePh>
		char len[10];
		sprintf(len, "%d", strlen(trsmt) );
     468:	f8 01       	movw	r30, r16
     46a:	01 90       	ld	r0, Z+
     46c:	00 20       	and	r0, r0
     46e:	e9 f7       	brne	.-6      	; 0x46a <__LOCK_REGION_LENGTH__+0x6a>
     470:	31 97       	sbiw	r30, 0x01	; 1
     472:	e0 1b       	sub	r30, r16
     474:	f1 0b       	sbc	r31, r17
     476:	ff 93       	push	r31
     478:	ef 93       	push	r30
     47a:	8e e0       	ldi	r24, 0x0E	; 14
     47c:	92 e0       	ldi	r25, 0x02	; 2
     47e:	9f 93       	push	r25
     480:	8f 93       	push	r24
     482:	00 5c       	subi	r16, 0xC0	; 192
     484:	1f 4f       	sbci	r17, 0xFF	; 255
     486:	1f 93       	push	r17
     488:	0f 93       	push	r16
     48a:	0e 94 5d 17 	call	0x2eba	; 0x2eba <sprintf>
		sendTestMessage((unsigned char*)len );
     48e:	c8 01       	movw	r24, r16
     490:	26 df       	rcall	.-436    	; 0x2de <_Z15sendTestMessagePh>
		USART_TX(0x0d);//переход в начало строки
     492:	8d e0       	ldi	r24, 0x0D	; 13
     494:	0e 94 17 16 	call	0x2c2e	; 0x2c2e <_Z8USART_TXh>
		USART_TX(0x0a);//переход на новую строку
     498:	8a e0       	ldi	r24, 0x0A	; 10
     49a:	0e 94 17 16 	call	0x2c2e	; 0x2c2e <_Z8USART_TXh>
		free(hashtr);
     49e:	c7 01       	movw	r24, r14
     4a0:	0e 94 d4 16 	call	0x2da8	; 0x2da8 <free>
     4a4:	0f b6       	in	r0, 0x3f	; 63
     4a6:	f8 94       	cli
     4a8:	de bf       	out	0x3e, r29	; 62
     4aa:	0f be       	out	0x3f, r0	; 63
     4ac:	cd bf       	out	0x3d, r28	; 61
	}
	else if(request == '2')
     4ae:	15 c0       	rjmp	.+42     	; 0x4da <__LOCK_REGION_LENGTH__+0xda>
     4b0:	12 33       	cpi	r17, 0x32	; 50
	{
		sendTestMessage((unsigned char*)"over command");
     4b2:	51 f4       	brne	.+20     	; 0x4c8 <__LOCK_REGION_LENGTH__+0xc8>
     4b4:	81 e3       	ldi	r24, 0x31	; 49
     4b6:	92 e0       	ldi	r25, 0x02	; 2
     4b8:	12 df       	rcall	.-476    	; 0x2de <_Z15sendTestMessagePh>
		USART_TX(0x0d);//переход в начало строки
     4ba:	8d e0       	ldi	r24, 0x0D	; 13
     4bc:	0e 94 17 16 	call	0x2c2e	; 0x2c2e <_Z8USART_TXh>
		USART_TX(0x0a);//переход на новую строку
     4c0:	8a e0       	ldi	r24, 0x0A	; 10
     4c2:	0e 94 17 16 	call	0x2c2e	; 0x2c2e <_Z8USART_TXh>
	}
	else
	{
		sendTestMessage((unsigned char*)"no command");
     4c6:	09 c0       	rjmp	.+18     	; 0x4da <__LOCK_REGION_LENGTH__+0xda>
     4c8:	8e e3       	ldi	r24, 0x3E	; 62
     4ca:	92 e0       	ldi	r25, 0x02	; 2
     4cc:	08 df       	rcall	.-496    	; 0x2de <_Z15sendTestMessagePh>
		USART_TX(0x0d);//переход в начало строки
     4ce:	8d e0       	ldi	r24, 0x0D	; 13
     4d0:	0e 94 17 16 	call	0x2c2e	; 0x2c2e <_Z8USART_TXh>
		USART_TX(0x0a);//переход на новую строку
     4d4:	8a e0       	ldi	r24, 0x0A	; 10
     4d6:	0e 94 17 16 	call	0x2c2e	; 0x2c2e <_Z8USART_TXh>
	}
}
     4da:	c6 5b       	subi	r28, 0xB6	; 182
     4dc:	df 4f       	sbci	r29, 0xFF	; 255
     4de:	0f b6       	in	r0, 0x3f	; 63
     4e0:	f8 94       	cli
     4e2:	de bf       	out	0x3e, r29	; 62
     4e4:	0f be       	out	0x3f, r0	; 63
     4e6:	cd bf       	out	0x3d, r28	; 61
     4e8:	df 91       	pop	r29
     4ea:	cf 91       	pop	r28
     4ec:	ff 91       	pop	r31
     4ee:	ef 91       	pop	r30
     4f0:	bf 91       	pop	r27
     4f2:	af 91       	pop	r26
     4f4:	9f 91       	pop	r25
     4f6:	8f 91       	pop	r24
     4f8:	7f 91       	pop	r23
     4fa:	6f 91       	pop	r22
     4fc:	5f 91       	pop	r21
     4fe:	4f 91       	pop	r20
     500:	3f 91       	pop	r19
     502:	2f 91       	pop	r18
     504:	1f 91       	pop	r17
     506:	0f 91       	pop	r16
     508:	ff 90       	pop	r15
     50a:	ef 90       	pop	r14
     50c:	0f 90       	pop	r0
     50e:	0b be       	out	0x3b, r0	; 59
     510:	0f 90       	pop	r0
     512:	0f be       	out	0x3f, r0	; 63
     514:	0f 90       	pop	r0
     516:	1f 90       	pop	r1
     518:	18 95       	reti

0000051a <main>:
	sprintf(es6p1, "%s%d", str1, (int)enc11);	
	sprintf(es6p2, "%s%d", str2, (int)enc22);	
}

int main(void)
{	
     51a:	cf 93       	push	r28
     51c:	df 93       	push	r29
     51e:	cd b7       	in	r28, 0x3d	; 61
     520:	de b7       	in	r29, 0x3e	; 62
     522:	a0 97       	sbiw	r28, 0x20	; 32
     524:	0f b6       	in	r0, 0x3f	; 63
     526:	f8 94       	cli
     528:	de bf       	out	0x3e, r29	; 62
     52a:	0f be       	out	0x3f, r0	; 63
     52c:	cd bf       	out	0x3d, r28	; 61
	port_init();
     52e:	0b de       	rcall	.-1002   	; 0x146 <_Z9port_initv>
	display_init();
     530:	2d de       	rcall	.-934    	; 0x18c <_Z12display_initv>
     532:	87 e6       	ldi	r24, 0x67	; 103
	USART_init(MYUBRR);
     534:	90 e0       	ldi	r25, 0x00	; 0
     536:	0e 94 f7 15 	call	0x2bee	; 0x2bee <_Z10USART_initj>
     53a:	78 94       	sei
	sei();
     53c:	89 e4       	ldi	r24, 0x49	; 73
	sendTestMessage((unsigned char*)"It`s working!"); 
     53e:	92 e0       	ldi	r25, 0x02	; 2
     540:	ce de       	rcall	.-612    	; 0x2de <_Z15sendTestMessagePh>
     542:	8d e0       	ldi	r24, 0x0D	; 13
	USART_TX(0x0d);//переход в начало строки
     544:	0e 94 17 16 	call	0x2c2e	; 0x2c2e <_Z8USART_TXh>
     548:	8a e0       	ldi	r24, 0x0A	; 10
	USART_TX(0x0a);//переход на новую строку
     54a:	0e 94 17 16 	call	0x2c2e	; 0x2c2e <_Z8USART_TXh>
	display_clear();
     54e:	2f de       	rcall	.-930    	; 0x1ae <_Z13display_clearv>
     550:	40 e0       	ldi	r20, 0x00	; 0
	display_send((unsigned char*)"Display is", 0, 0);
     552:	60 e0       	ldi	r22, 0x00	; 0
     554:	87 e5       	ldi	r24, 0x57	; 87
     556:	92 e0       	ldi	r25, 0x02	; 2
     558:	5f de       	rcall	.-834    	; 0x218 <_Z12display_sendPhhh>
     55a:	41 e0       	ldi	r20, 0x01	; 1
	display_send((unsigned char*)"work! :) ", 0, 1);
     55c:	60 e0       	ldi	r22, 0x00	; 0
     55e:	82 e6       	ldi	r24, 0x62	; 98
     560:	92 e0       	ldi	r25, 0x02	; 2
     562:	5a de       	rcall	.-844    	; 0x218 <_Z12display_sendPhhh>
     564:	2f ef       	ldi	r18, 0xFF	; 255
     566:	87 ea       	ldi	r24, 0xA7	; 167
     568:	91 e6       	ldi	r25, 0x61	; 97
     56a:	21 50       	subi	r18, 0x01	; 1
     56c:	80 40       	sbci	r24, 0x00	; 0
     56e:	90 40       	sbci	r25, 0x00	; 0
     570:	e1 f7       	brne	.-8      	; 0x56a <main+0x50>
     572:	00 c0       	rjmp	.+0      	; 0x574 <main+0x5a>
     574:	00 00       	nop
     576:	1b de       	rcall	.-970    	; 0x1ae <_Z13display_clearv>
	_delay_ms(2000);
	display_clear();
     578:	62 e1       	ldi	r22, 0x12	; 18
     57a:	70 e0       	ldi	r23, 0x00	; 0
	unsigned char* befHashMess = (unsigned char*)"secret information";
	unsigned char* aftHashMess = gethash_md5(befHashMess, strlen( (char*)befHashMess) );
     57c:	8c e6       	ldi	r24, 0x6C	; 108
     57e:	92 e0       	ldi	r25, 0x02	; 2
     580:	c9 d1       	rcall	.+914    	; 0x914 <_Z11gethash_md5Phi>
     582:	8c 01       	movw	r16, r24
     584:	8c e6       	ldi	r24, 0x6C	; 108
     586:	92 e0       	ldi	r25, 0x02	; 2
	sendTestMessage(befHashMess);
     588:	aa de       	rcall	.-684    	; 0x2de <_Z15sendTestMessagePh>
     58a:	8d e0       	ldi	r24, 0x0D	; 13
     58c:	0e 94 17 16 	call	0x2c2e	; 0x2c2e <_Z8USART_TXh>
	USART_TX(0x0d);
     590:	8a e0       	ldi	r24, 0x0A	; 10
     592:	0e 94 17 16 	call	0x2c2e	; 0x2c2e <_Z8USART_TXh>
	USART_TX(0x0a);
     596:	c8 01       	movw	r24, r16
	sendTestMessage(aftHashMess);
     598:	a2 de       	rcall	.-700    	; 0x2de <_Z15sendTestMessagePh>
     59a:	8d e0       	ldi	r24, 0x0D	; 13
     59c:	0e 94 17 16 	call	0x2c2e	; 0x2c2e <_Z8USART_TXh>
	USART_TX(0x0d);
     5a0:	8a e0       	ldi	r24, 0x0A	; 10
	USART_TX(0x0a);
     5a2:	0e 94 17 16 	call	0x2c2e	; 0x2c2e <_Z8USART_TXh>
	lightIndicator();		
     5a6:	70 de       	rcall	.-800    	; 0x288 <_Z14lightIndicatorv>
     5a8:	be 01       	movw	r22, r28
	while(1) 
    {
		char es6p1[16];
		char es6p2[16];
		read_encoders(es6p1, es6p2);
     5aa:	6f 5f       	subi	r22, 0xFF	; 255
     5ac:	7f 4f       	sbci	r23, 0xFF	; 255
     5ae:	ce 01       	movw	r24, r28
     5b0:	41 96       	adiw	r24, 0x11	; 17
     5b2:	b3 de       	rcall	.-666    	; 0x31a <_Z13read_encodersPcS_>
     5b4:	fc dd       	rcall	.-1032   	; 0x1ae <_Z13display_clearv>
     5b6:	2f ef       	ldi	r18, 0xFF	; 255
		display_clear();
     5b8:	87 ee       	ldi	r24, 0xE7	; 231
     5ba:	93 e0       	ldi	r25, 0x03	; 3
     5bc:	21 50       	subi	r18, 0x01	; 1
     5be:	80 40       	sbci	r24, 0x00	; 0
     5c0:	90 40       	sbci	r25, 0x00	; 0
     5c2:	e1 f7       	brne	.-8      	; 0x5bc <main+0xa2>
     5c4:	00 c0       	rjmp	.+0      	; 0x5c6 <main+0xac>
     5c6:	00 00       	nop
		_delay_ms(80);
		display_send((unsigned char*)es6p1, 0,  0);
     5c8:	40 e0       	ldi	r20, 0x00	; 0
     5ca:	60 e0       	ldi	r22, 0x00	; 0
     5cc:	ce 01       	movw	r24, r28
     5ce:	41 96       	adiw	r24, 0x11	; 17
     5d0:	23 de       	rcall	.-954    	; 0x218 <_Z12display_sendPhhh>
     5d2:	41 e0       	ldi	r20, 0x01	; 1
		display_send((unsigned char*)es6p2, 0 , 1);
     5d4:	60 e0       	ldi	r22, 0x00	; 0
     5d6:	ce 01       	movw	r24, r28
     5d8:	01 96       	adiw	r24, 0x01	; 1
     5da:	1e de       	rcall	.-964    	; 0x218 <_Z12display_sendPhhh>
     5dc:	55 de       	rcall	.-854    	; 0x288 <_Z14lightIndicatorv>
     5de:	e4 cf       	rjmp	.-56     	; 0x5a8 <main+0x8e>

000005e0 <_Z9getNewLeni>:
		lightIndicator();
     5e0:	9c 01       	movw	r18, r24
     5e2:	2f 73       	andi	r18, 0x3F	; 63
     5e4:	30 78       	andi	r19, 0x80	; 128
{
    for(int i = 0; i < n; i++)
    {
        T[i] = ( pow(2, 32) * fabs(sin(i+1)) );
    }
}
     5e6:	33 23       	and	r19, r19
     5e8:	34 f4       	brge	.+12     	; 0x5f6 <_Z9getNewLeni+0x16>
     5ea:	21 50       	subi	r18, 0x01	; 1
     5ec:	31 09       	sbc	r19, r1
     5ee:	20 6c       	ori	r18, 0xC0	; 192
     5f0:	3f 6f       	ori	r19, 0xFF	; 255
     5f2:	2f 5f       	subi	r18, 0xFF	; 255
     5f4:	3f 4f       	sbci	r19, 0xFF	; 255
     5f6:	28 33       	cpi	r18, 0x38	; 56
     5f8:	31 05       	cpc	r19, r1
     5fa:	11 f0       	breq	.+4      	; 0x600 <_Z9getNewLeni+0x20>
     5fc:	01 96       	adiw	r24, 0x01	; 1
     5fe:	f0 cf       	rjmp	.-32     	; 0x5e0 <_Z9getNewLeni>
     600:	08 96       	adiw	r24, 0x08	; 8
     602:	08 95       	ret

00000604 <_Z6endianv>:
     604:	80 e0       	ldi	r24, 0x00	; 0
     606:	08 95       	ret

00000608 <_Z11preparationPhi>:
     608:	3f 92       	push	r3
     60a:	4f 92       	push	r4
     60c:	5f 92       	push	r5
     60e:	6f 92       	push	r6
     610:	7f 92       	push	r7
     612:	8f 92       	push	r8
     614:	9f 92       	push	r9
     616:	af 92       	push	r10
     618:	bf 92       	push	r11
     61a:	cf 92       	push	r12
     61c:	df 92       	push	r13
     61e:	ef 92       	push	r14
     620:	ff 92       	push	r15
     622:	0f 93       	push	r16
     624:	1f 93       	push	r17
     626:	cf 93       	push	r28
     628:	df 93       	push	r29
     62a:	4c 01       	movw	r8, r24
     62c:	5b 01       	movw	r10, r22
     62e:	cb 01       	movw	r24, r22
     630:	d7 df       	rcall	.-82     	; 0x5e0 <_Z9getNewLeni>
     632:	6c 01       	movw	r12, r24
     634:	ec 01       	movw	r28, r24
     636:	28 97       	sbiw	r28, 0x08	; 8
     638:	0e 94 3c 16 	call	0x2c78	; 0x2c78 <malloc>
     63c:	7c 01       	movw	r14, r24
     63e:	80 e0       	ldi	r24, 0x00	; 0
     640:	90 e0       	ldi	r25, 0x00	; 0
     642:	8c 17       	cp	r24, r28
     644:	9d 07       	cpc	r25, r29
     646:	dc f4       	brge	.+54     	; 0x67e <_Z11preparationPhi+0x76>
     648:	8a 15       	cp	r24, r10
     64a:	9b 05       	cpc	r25, r11
     64c:	4c f4       	brge	.+18     	; 0x660 <_Z11preparationPhi+0x58>
     64e:	f4 01       	movw	r30, r8
     650:	e8 0f       	add	r30, r24
     652:	f9 1f       	adc	r31, r25
     654:	20 81       	ld	r18, Z
     656:	f7 01       	movw	r30, r14
     658:	e8 0f       	add	r30, r24
     65a:	f9 1f       	adc	r31, r25
     65c:	20 83       	st	Z, r18
     65e:	0d c0       	rjmp	.+26     	; 0x67a <_Z11preparationPhi+0x72>
     660:	8a 15       	cp	r24, r10
     662:	9b 05       	cpc	r25, r11
     664:	31 f4       	brne	.+12     	; 0x672 <_Z11preparationPhi+0x6a>
     666:	20 e8       	ldi	r18, 0x80	; 128
     668:	f7 01       	movw	r30, r14
     66a:	e8 0f       	add	r30, r24
     66c:	f9 1f       	adc	r31, r25
     66e:	20 83       	st	Z, r18
     670:	04 c0       	rjmp	.+8      	; 0x67a <_Z11preparationPhi+0x72>
     672:	f7 01       	movw	r30, r14
     674:	e8 0f       	add	r30, r24
     676:	f9 1f       	adc	r31, r25
     678:	10 82       	st	Z, r1
     67a:	01 96       	adiw	r24, 0x01	; 1
     67c:	e2 cf       	rjmp	.-60     	; 0x642 <_Z11preparationPhi+0x3a>
     67e:	aa 0c       	add	r10, r10
     680:	bb 1c       	adc	r11, r11
     682:	aa 0c       	add	r10, r10
     684:	bb 1c       	adc	r11, r11
     686:	aa 0c       	add	r10, r10
     688:	bb 1c       	adc	r11, r11
     68a:	3a 2c       	mov	r3, r10
     68c:	4b 2c       	mov	r4, r11
     68e:	1b 2d       	mov	r17, r11
     690:	11 0f       	add	r17, r17
     692:	11 0b       	sbc	r17, r17
     694:	51 2e       	mov	r5, r17
     696:	61 2e       	mov	r6, r17
     698:	71 2e       	mov	r7, r17
     69a:	81 2e       	mov	r8, r17
     69c:	91 2e       	mov	r9, r17
     69e:	b2 df       	rcall	.-156    	; 0x604 <_Z6endianv>
     6a0:	81 11       	cpse	r24, r1
     6a2:	1e c0       	rjmp	.+60     	; 0x6e0 <_Z11preparationPhi+0xd8>
     6a4:	e0 e0       	ldi	r30, 0x00	; 0
     6a6:	f0 e0       	ldi	r31, 0x00	; 0
     6a8:	cc 15       	cp	r28, r12
     6aa:	dd 05       	cpc	r29, r13
     6ac:	cc f5       	brge	.+114    	; 0x720 <_Z11preparationPhi+0x118>
     6ae:	d7 01       	movw	r26, r14
     6b0:	ac 0f       	add	r26, r28
     6b2:	bd 1f       	adc	r27, r29
     6b4:	5f 01       	movw	r10, r30
     6b6:	aa 0c       	add	r10, r10
     6b8:	bb 1c       	adc	r11, r11
     6ba:	aa 0c       	add	r10, r10
     6bc:	bb 1c       	adc	r11, r11
     6be:	aa 0c       	add	r10, r10
     6c0:	bb 1c       	adc	r11, r11
     6c2:	23 2d       	mov	r18, r3
     6c4:	34 2d       	mov	r19, r4
     6c6:	41 2f       	mov	r20, r17
     6c8:	55 2d       	mov	r21, r5
     6ca:	66 2d       	mov	r22, r6
     6cc:	77 2d       	mov	r23, r7
     6ce:	88 2d       	mov	r24, r8
     6d0:	99 2d       	mov	r25, r9
     6d2:	0a 2d       	mov	r16, r10
     6d4:	0e 94 20 16 	call	0x2c40	; 0x2c40 <__lshrdi3>
     6d8:	2c 93       	st	X, r18
     6da:	21 96       	adiw	r28, 0x01	; 1
     6dc:	31 96       	adiw	r30, 0x01	; 1
     6de:	e4 cf       	rjmp	.-56     	; 0x6a8 <_Z11preparationPhi+0xa0>
     6e0:	88 23       	and	r24, r24
     6e2:	f1 f0       	breq	.+60     	; 0x720 <_Z11preparationPhi+0x118>
     6e4:	e7 e0       	ldi	r30, 0x07	; 7
     6e6:	f0 e0       	ldi	r31, 0x00	; 0
     6e8:	cc 15       	cp	r28, r12
     6ea:	dd 05       	cpc	r29, r13
     6ec:	cc f4       	brge	.+50     	; 0x720 <_Z11preparationPhi+0x118>
     6ee:	d7 01       	movw	r26, r14
     6f0:	ac 0f       	add	r26, r28
     6f2:	bd 1f       	adc	r27, r29
     6f4:	5f 01       	movw	r10, r30
     6f6:	aa 0c       	add	r10, r10
     6f8:	bb 1c       	adc	r11, r11
     6fa:	aa 0c       	add	r10, r10
     6fc:	bb 1c       	adc	r11, r11
     6fe:	aa 0c       	add	r10, r10
     700:	bb 1c       	adc	r11, r11
     702:	23 2d       	mov	r18, r3
     704:	34 2d       	mov	r19, r4
     706:	41 2f       	mov	r20, r17
     708:	55 2d       	mov	r21, r5
     70a:	66 2d       	mov	r22, r6
     70c:	77 2d       	mov	r23, r7
     70e:	88 2d       	mov	r24, r8
     710:	99 2d       	mov	r25, r9
     712:	0a 2d       	mov	r16, r10
     714:	0e 94 20 16 	call	0x2c40	; 0x2c40 <__lshrdi3>
     718:	2c 93       	st	X, r18
     71a:	21 96       	adiw	r28, 0x01	; 1
     71c:	31 97       	sbiw	r30, 0x01	; 1
     71e:	e4 cf       	rjmp	.-56     	; 0x6e8 <_Z11preparationPhi+0xe0>
     720:	c7 01       	movw	r24, r14
     722:	df 91       	pop	r29
     724:	cf 91       	pop	r28
     726:	1f 91       	pop	r17
     728:	0f 91       	pop	r16
     72a:	ff 90       	pop	r15
     72c:	ef 90       	pop	r14
     72e:	df 90       	pop	r13
     730:	cf 90       	pop	r12
     732:	bf 90       	pop	r11
     734:	af 90       	pop	r10
     736:	9f 90       	pop	r9
     738:	8f 90       	pop	r8
     73a:	7f 90       	pop	r7
     73c:	6f 90       	pop	r6
     73e:	5f 90       	pop	r5
     740:	4f 90       	pop	r4
     742:	3f 90       	pop	r3
     744:	08 95       	ret

00000746 <_Z9setUpBuffPmS_S_S_>:
     746:	cf 92       	push	r12
     748:	df 92       	push	r13
     74a:	ef 92       	push	r14
     74c:	ff 92       	push	r15
     74e:	0f 93       	push	r16
     750:	1f 93       	push	r17
     752:	cf 93       	push	r28
     754:	df 93       	push	r29
     756:	6c 01       	movw	r12, r24
     758:	7b 01       	movw	r14, r22
     75a:	8a 01       	movw	r16, r20
     75c:	e9 01       	movw	r28, r18
     75e:	52 df       	rcall	.-348    	; 0x604 <_Z6endianv>
     760:	81 11       	cpse	r24, r1
     762:	24 c0       	rjmp	.+72     	; 0x7ac <_Z9setUpBuffPmS_S_S_+0x66>
     764:	81 e0       	ldi	r24, 0x01	; 1
     766:	93 e2       	ldi	r25, 0x23	; 35
     768:	a5 e4       	ldi	r26, 0x45	; 69
     76a:	b7 e6       	ldi	r27, 0x67	; 103
     76c:	f6 01       	movw	r30, r12
     76e:	80 83       	st	Z, r24
     770:	91 83       	std	Z+1, r25	; 0x01
     772:	a2 83       	std	Z+2, r26	; 0x02
     774:	b3 83       	std	Z+3, r27	; 0x03
     776:	89 e8       	ldi	r24, 0x89	; 137
     778:	9b ea       	ldi	r25, 0xAB	; 171
     77a:	ad ec       	ldi	r26, 0xCD	; 205
     77c:	bf ee       	ldi	r27, 0xEF	; 239
     77e:	f7 01       	movw	r30, r14
     780:	80 83       	st	Z, r24
     782:	91 83       	std	Z+1, r25	; 0x01
     784:	a2 83       	std	Z+2, r26	; 0x02
     786:	b3 83       	std	Z+3, r27	; 0x03
     788:	8e ef       	ldi	r24, 0xFE	; 254
     78a:	9c ed       	ldi	r25, 0xDC	; 220
     78c:	aa eb       	ldi	r26, 0xBA	; 186
     78e:	b8 e9       	ldi	r27, 0x98	; 152
     790:	f8 01       	movw	r30, r16
     792:	80 83       	st	Z, r24
     794:	91 83       	std	Z+1, r25	; 0x01
     796:	a2 83       	std	Z+2, r26	; 0x02
     798:	b3 83       	std	Z+3, r27	; 0x03
     79a:	86 e7       	ldi	r24, 0x76	; 118
     79c:	94 e5       	ldi	r25, 0x54	; 84
     79e:	a2 e3       	ldi	r26, 0x32	; 50
     7a0:	b0 e1       	ldi	r27, 0x10	; 16
     7a2:	88 83       	st	Y, r24
     7a4:	99 83       	std	Y+1, r25	; 0x01
     7a6:	aa 83       	std	Y+2, r26	; 0x02
     7a8:	bb 83       	std	Y+3, r27	; 0x03
     7aa:	25 c0       	rjmp	.+74     	; 0x7f6 <_Z9setUpBuffPmS_S_S_+0xb0>
     7ac:	88 23       	and	r24, r24
     7ae:	19 f1       	breq	.+70     	; 0x7f6 <_Z9setUpBuffPmS_S_S_+0xb0>
     7b0:	87 e6       	ldi	r24, 0x67	; 103
     7b2:	95 e4       	ldi	r25, 0x45	; 69
     7b4:	a3 e2       	ldi	r26, 0x23	; 35
     7b6:	b1 e0       	ldi	r27, 0x01	; 1
     7b8:	f6 01       	movw	r30, r12
     7ba:	80 83       	st	Z, r24
     7bc:	91 83       	std	Z+1, r25	; 0x01
     7be:	a2 83       	std	Z+2, r26	; 0x02
     7c0:	b3 83       	std	Z+3, r27	; 0x03
     7c2:	8f ee       	ldi	r24, 0xEF	; 239
     7c4:	9d ec       	ldi	r25, 0xCD	; 205
     7c6:	ab ea       	ldi	r26, 0xAB	; 171
     7c8:	b9 e8       	ldi	r27, 0x89	; 137
     7ca:	f7 01       	movw	r30, r14
     7cc:	80 83       	st	Z, r24
     7ce:	91 83       	std	Z+1, r25	; 0x01
     7d0:	a2 83       	std	Z+2, r26	; 0x02
     7d2:	b3 83       	std	Z+3, r27	; 0x03
     7d4:	88 e9       	ldi	r24, 0x98	; 152
     7d6:	9a eb       	ldi	r25, 0xBA	; 186
     7d8:	ac ed       	ldi	r26, 0xDC	; 220
     7da:	be ef       	ldi	r27, 0xFE	; 254
     7dc:	f8 01       	movw	r30, r16
     7de:	80 83       	st	Z, r24
     7e0:	91 83       	std	Z+1, r25	; 0x01
     7e2:	a2 83       	std	Z+2, r26	; 0x02
     7e4:	b3 83       	std	Z+3, r27	; 0x03
     7e6:	80 e1       	ldi	r24, 0x10	; 16
     7e8:	92 e3       	ldi	r25, 0x32	; 50
     7ea:	a4 e5       	ldi	r26, 0x54	; 84
     7ec:	b6 e7       	ldi	r27, 0x76	; 118
     7ee:	88 83       	st	Y, r24
     7f0:	99 83       	std	Y+1, r25	; 0x01
     7f2:	aa 83       	std	Y+2, r26	; 0x02
     7f4:	bb 83       	std	Y+3, r27	; 0x03
     7f6:	df 91       	pop	r29
     7f8:	cf 91       	pop	r28
     7fa:	1f 91       	pop	r17
     7fc:	0f 91       	pop	r16
     7fe:	ff 90       	pop	r15
     800:	ef 90       	pop	r14
     802:	df 90       	pop	r13
     804:	cf 90       	pop	r12
     806:	08 95       	ret

00000808 <_Z10bit_rotatePmi>:

void bit_rotate(uint32_t* value, int S)
{
     808:	cf 92       	push	r12
     80a:	df 92       	push	r13
     80c:	ef 92       	push	r14
     80e:	ff 92       	push	r15
     810:	9b 01       	movw	r18, r22
    //uint32_t temp_bef = *value;
    *value = (*value << S) | (*value >> (32 - S));
     812:	fc 01       	movw	r30, r24
     814:	40 81       	ld	r20, Z
     816:	51 81       	ldd	r21, Z+1	; 0x01
     818:	62 81       	ldd	r22, Z+2	; 0x02
     81a:	73 81       	ldd	r23, Z+3	; 0x03
     81c:	6a 01       	movw	r12, r20
     81e:	7b 01       	movw	r14, r22
     820:	02 2e       	mov	r0, r18
     822:	04 c0       	rjmp	.+8      	; 0x82c <_Z10bit_rotatePmi+0x24>
     824:	cc 0c       	add	r12, r12
     826:	dd 1c       	adc	r13, r13
     828:	ee 1c       	adc	r14, r14
     82a:	ff 1c       	adc	r15, r15
     82c:	0a 94       	dec	r0
     82e:	d2 f7       	brpl	.-12     	; 0x824 <_Z10bit_rotatePmi+0x1c>
     830:	31 95       	neg	r19
     832:	21 95       	neg	r18
     834:	31 09       	sbc	r19, r1
     836:	2f 71       	andi	r18, 0x1F	; 31
     838:	04 c0       	rjmp	.+8      	; 0x842 <_Z10bit_rotatePmi+0x3a>
     83a:	76 95       	lsr	r23
     83c:	67 95       	ror	r22
     83e:	57 95       	ror	r21
     840:	47 95       	ror	r20
     842:	2a 95       	dec	r18
     844:	d2 f7       	brpl	.-12     	; 0x83a <_Z10bit_rotatePmi+0x32>
     846:	4c 29       	or	r20, r12
     848:	5d 29       	or	r21, r13
     84a:	6e 29       	or	r22, r14
     84c:	7f 29       	or	r23, r15
     84e:	40 83       	st	Z, r20
     850:	51 83       	std	Z+1, r21	; 0x01
     852:	62 83       	std	Z+2, r22	; 0x02
     854:	73 83       	std	Z+3, r23	; 0x03
    //printf("%c", (temp_aft & 0x80000000) ? '1' : '0' );
    //    temp_aft<<=1;
    //}
    //printf("\n\n");

}
     856:	ff 90       	pop	r15
     858:	ef 90       	pop	r14
     85a:	df 90       	pop	r13
     85c:	cf 90       	pop	r12
     85e:	08 95       	ret

00000860 <_Z10raund_funcPmS_S_S_mimm>:

void raund_func(uint32_t* a, uint32_t*b, uint32_t* c, uint32_t*d, uint32_t Xk, int S,  uint32_t Ti, uint32_t F_fun)
{
     860:	4f 92       	push	r4
     862:	5f 92       	push	r5
     864:	6f 92       	push	r6
     866:	7f 92       	push	r7
     868:	8f 92       	push	r8
     86a:	9f 92       	push	r9
     86c:	af 92       	push	r10
     86e:	bf 92       	push	r11
     870:	cf 92       	push	r12
     872:	df 92       	push	r13
     874:	ef 92       	push	r14
     876:	ff 92       	push	r15
     878:	0f 93       	push	r16
     87a:	1f 93       	push	r17
     87c:	cf 93       	push	r28
     87e:	df 93       	push	r29
     880:	00 d0       	rcall	.+0      	; 0x882 <_Z10raund_funcPmS_S_S_mimm+0x22>
     882:	1f 92       	push	r1
     884:	cd b7       	in	r28, 0x3d	; 61
     886:	de b7       	in	r29, 0x3e	; 62
     888:	3c 01       	movw	r6, r24
     88a:	2b 01       	movw	r4, r22
    uint32_t buff = (*a + F_fun + Xk + Ti);
     88c:	fc 01       	movw	r30, r24
     88e:	40 81       	ld	r20, Z
     890:	51 81       	ldd	r21, Z+1	; 0x01
     892:	62 81       	ldd	r22, Z+2	; 0x02
     894:	73 81       	ldd	r23, Z+3	; 0x03
     896:	88 8d       	ldd	r24, Y+24	; 0x18
     898:	99 8d       	ldd	r25, Y+25	; 0x19
     89a:	aa 8d       	ldd	r26, Y+26	; 0x1a
     89c:	bb 8d       	ldd	r27, Y+27	; 0x1b
     89e:	84 0f       	add	r24, r20
     8a0:	95 1f       	adc	r25, r21
     8a2:	a6 1f       	adc	r26, r22
     8a4:	b7 1f       	adc	r27, r23
     8a6:	8e 0d       	add	r24, r14
     8a8:	9f 1d       	adc	r25, r15
     8aa:	a0 1f       	adc	r26, r16
     8ac:	b1 1f       	adc	r27, r17
     8ae:	88 0e       	add	r8, r24
     8b0:	99 1e       	adc	r9, r25
     8b2:	aa 1e       	adc	r10, r26
     8b4:	bb 1e       	adc	r11, r27
     8b6:	89 82       	std	Y+1, r8	; 0x01
     8b8:	9a 82       	std	Y+2, r9	; 0x02
     8ba:	ab 82       	std	Y+3, r10	; 0x03
     8bc:	bc 82       	std	Y+4, r11	; 0x04
    bit_rotate( &buff,  S);
     8be:	b6 01       	movw	r22, r12
     8c0:	ce 01       	movw	r24, r28
     8c2:	01 96       	adiw	r24, 0x01	; 1
     8c4:	a1 df       	rcall	.-190    	; 0x808 <_Z10bit_rotatePmi>
    *a = *b +  buff;
     8c6:	f2 01       	movw	r30, r4
     8c8:	40 81       	ld	r20, Z
     8ca:	51 81       	ldd	r21, Z+1	; 0x01
     8cc:	62 81       	ldd	r22, Z+2	; 0x02
     8ce:	73 81       	ldd	r23, Z+3	; 0x03
     8d0:	89 81       	ldd	r24, Y+1	; 0x01
     8d2:	9a 81       	ldd	r25, Y+2	; 0x02
     8d4:	ab 81       	ldd	r26, Y+3	; 0x03
     8d6:	bc 81       	ldd	r27, Y+4	; 0x04
     8d8:	84 0f       	add	r24, r20
     8da:	95 1f       	adc	r25, r21
     8dc:	a6 1f       	adc	r26, r22
     8de:	b7 1f       	adc	r27, r23
     8e0:	f3 01       	movw	r30, r6
     8e2:	80 83       	st	Z, r24
     8e4:	91 83       	std	Z+1, r25	; 0x01
     8e6:	a2 83       	std	Z+2, r26	; 0x02
     8e8:	b3 83       	std	Z+3, r27	; 0x03
}
     8ea:	0f 90       	pop	r0
     8ec:	0f 90       	pop	r0
     8ee:	0f 90       	pop	r0
     8f0:	0f 90       	pop	r0
     8f2:	df 91       	pop	r29
     8f4:	cf 91       	pop	r28
     8f6:	1f 91       	pop	r17
     8f8:	0f 91       	pop	r16
     8fa:	ff 90       	pop	r15
     8fc:	ef 90       	pop	r14
     8fe:	df 90       	pop	r13
     900:	cf 90       	pop	r12
     902:	bf 90       	pop	r11
     904:	af 90       	pop	r10
     906:	9f 90       	pop	r9
     908:	8f 90       	pop	r8
     90a:	7f 90       	pop	r7
     90c:	6f 90       	pop	r6
     90e:	5f 90       	pop	r5
     910:	4f 90       	pop	r4
     912:	08 95       	ret

00000914 <_Z11gethash_md5Phi>:

unsigned char* gethash_md5(unsigned char* input, int lenght) //main function
{
     914:	2f 92       	push	r2
     916:	3f 92       	push	r3
     918:	4f 92       	push	r4
     91a:	5f 92       	push	r5
     91c:	6f 92       	push	r6
     91e:	7f 92       	push	r7
     920:	8f 92       	push	r8
     922:	9f 92       	push	r9
     924:	af 92       	push	r10
     926:	bf 92       	push	r11
     928:	cf 92       	push	r12
     92a:	df 92       	push	r13
     92c:	ef 92       	push	r14
     92e:	ff 92       	push	r15
     930:	0f 93       	push	r16
     932:	1f 93       	push	r17
     934:	cf 93       	push	r28
     936:	df 93       	push	r29
     938:	cd b7       	in	r28, 0x3d	; 61
     93a:	de b7       	in	r29, 0x3e	; 62
     93c:	e8 97       	sbiw	r28, 0x38	; 56
     93e:	0f b6       	in	r0, 0x3f	; 63
     940:	f8 94       	cli
     942:	de bf       	out	0x3e, r29	; 62
     944:	0f be       	out	0x3f, r0	; 63
     946:	cd bf       	out	0x3d, r28	; 61
     948:	7c 01       	movw	r14, r24
     94a:	8b 01       	movw	r16, r22
    uint32_t b;
    uint32_t c;
    uint32_t d;

    int firstLenght = lenght;
    int new_lenght = getNewLen(firstLenght);
     94c:	cb 01       	movw	r24, r22
     94e:	48 de       	rcall	.-880    	; 0x5e0 <_Z9getNewLeni>
     950:	98 af       	std	Y+56, r25	; 0x38
     952:	8f ab       	std	Y+55, r24	; 0x37
    uint8_t* stream;
    stream = preparation(input, firstLenght); //padding to evelation
     954:	b8 01       	movw	r22, r16
     956:	c7 01       	movw	r24, r14
     958:	57 de       	rcall	.-850    	; 0x608 <_Z11preparationPhi>
     95a:	3c 01       	movw	r6, r24
	//	USART_TX(0x0d);//переход в начало строки
	//	USART_TX(0x0a);//переход на новую строку
	//}
    ///////////////////////////////////

    setUpBuff(&a, &b, &c, &d);
     95c:	9e 01       	movw	r18, r28
     95e:	23 5f       	subi	r18, 0xF3	; 243
     960:	3f 4f       	sbci	r19, 0xFF	; 255
     962:	ae 01       	movw	r20, r28
     964:	47 5f       	subi	r20, 0xF7	; 247
     966:	5f 4f       	sbci	r21, 0xFF	; 255
     968:	be 01       	movw	r22, r28
     96a:	6b 5f       	subi	r22, 0xFB	; 251
     96c:	7f 4f       	sbci	r23, 0xFF	; 255
     96e:	ce 01       	movw	r24, r28
     970:	01 96       	adiw	r24, 0x01	; 1
     972:	e9 de       	rcall	.-558    	; 0x746 <_Z9setUpBuffPmS_S_S_>
    //printf("b:  %x\n", b);
    //printf("c:  %x\n", c);
    //printf("d:  %x\n", d);
    ////////////////////////////////

    for(int _start = 0, _end = 64; _start < new_lenght; _start+=64, _end+=64)
     974:	00 e4       	ldi	r16, 0x40	; 64
     976:	10 e0       	ldi	r17, 0x00	; 0
     978:	1e a2       	std	Y+38, r1	; 0x26
     97a:	1d a2       	std	Y+37, r1	; 0x25
     97c:	18 01       	movw	r2, r16
     97e:	2d a1       	ldd	r18, Y+37	; 0x25
     980:	3e a1       	ldd	r19, Y+38	; 0x26
     982:	4f a9       	ldd	r20, Y+55	; 0x37
     984:	58 ad       	ldd	r21, Y+56	; 0x38
     986:	24 17       	cp	r18, r20
     988:	35 07       	cpc	r19, r21
     98a:	14 f0       	brlt	.+4      	; 0x990 <_Z11gethash_md5Phi+0x7c>
     98c:	0c 94 0b 15 	jmp	0x2a16	; 0x2a16 <__stack+0x817>
    {
        uint32_t a_tmp = a;
     990:	89 81       	ldd	r24, Y+1	; 0x01
     992:	9a 81       	ldd	r25, Y+2	; 0x02
     994:	ab 81       	ldd	r26, Y+3	; 0x03
     996:	bc 81       	ldd	r27, Y+4	; 0x04
     998:	8f a3       	std	Y+39, r24	; 0x27
     99a:	98 a7       	std	Y+40, r25	; 0x28
     99c:	a9 a7       	std	Y+41, r26	; 0x29
     99e:	ba a7       	std	Y+42, r27	; 0x2a
        uint32_t b_tmp = b;
     9a0:	2d 81       	ldd	r18, Y+5	; 0x05
     9a2:	3e 81       	ldd	r19, Y+6	; 0x06
     9a4:	4f 81       	ldd	r20, Y+7	; 0x07
     9a6:	58 85       	ldd	r21, Y+8	; 0x08
     9a8:	2b a7       	std	Y+43, r18	; 0x2b
     9aa:	3c a7       	std	Y+44, r19	; 0x2c
     9ac:	4d a7       	std	Y+45, r20	; 0x2d
     9ae:	5e a7       	std	Y+46, r21	; 0x2e
        uint32_t c_tmp = c;
     9b0:	89 85       	ldd	r24, Y+9	; 0x09
     9b2:	9a 85       	ldd	r25, Y+10	; 0x0a
     9b4:	ab 85       	ldd	r26, Y+11	; 0x0b
     9b6:	bc 85       	ldd	r27, Y+12	; 0x0c
     9b8:	8f a7       	std	Y+47, r24	; 0x2f
     9ba:	98 ab       	std	Y+48, r25	; 0x30
     9bc:	a9 ab       	std	Y+49, r26	; 0x31
     9be:	ba ab       	std	Y+50, r27	; 0x32
        uint32_t d_tmp = d;
     9c0:	2d 85       	ldd	r18, Y+13	; 0x0d
     9c2:	3e 85       	ldd	r19, Y+14	; 0x0e
     9c4:	4f 85       	ldd	r20, Y+15	; 0x0f
     9c6:	58 89       	ldd	r21, Y+16	; 0x10
     9c8:	2b ab       	std	Y+51, r18	; 0x33
     9ca:	3c ab       	std	Y+52, r19	; 0x34
     9cc:	4d ab       	std	Y+53, r20	; 0x35
     9ce:	5e ab       	std	Y+54, r21	; 0x36
        //uint32_t* X = new uint32_t[16];
		uint32_t* X = (uint32_t*)malloc(16 * sizeof(uint32_t));
     9d0:	80 e4       	ldi	r24, 0x40	; 64
     9d2:	90 e0       	ldi	r25, 0x00	; 0
     9d4:	0e 94 3c 16 	call	0x2c78	; 0x2c78 <malloc>
     9d8:	2c 01       	movw	r4, r24
		
        for(int i = _start, j = _start + 4, index = 0; i < _end; i += 4, j += 4, index++)
     9da:	6d a1       	ldd	r22, Y+37	; 0x25
     9dc:	7e a1       	ldd	r23, Y+38	; 0x26
     9de:	6c 5f       	subi	r22, 0xFC	; 252
     9e0:	7f 4f       	sbci	r23, 0xFF	; 255
     9e2:	4d a1       	ldd	r20, Y+37	; 0x25
     9e4:	5e a1       	ldd	r21, Y+38	; 0x26
     9e6:	00 e0       	ldi	r16, 0x00	; 0
     9e8:	10 e0       	ldi	r17, 0x00	; 0
     9ea:	42 15       	cp	r20, r2
     9ec:	53 05       	cpc	r21, r3
     9ee:	0c f0       	brlt	.+2      	; 0x9f2 <_Z11gethash_md5Phi+0xde>
     9f0:	42 c0       	rjmp	.+132    	; 0xa76 <_Z11gethash_md5Phi+0x162>
        {
            //printf("index = %d\n", index);
            X[index] = 0;
     9f2:	f8 01       	movw	r30, r16
     9f4:	ee 0f       	add	r30, r30
     9f6:	ff 1f       	adc	r31, r31
     9f8:	ee 0f       	add	r30, r30
     9fa:	ff 1f       	adc	r31, r31
     9fc:	e4 0d       	add	r30, r4
     9fe:	f5 1d       	adc	r31, r5
     a00:	10 82       	st	Z, r1
     a02:	11 82       	std	Z+1, r1	; 0x01
     a04:	12 82       	std	Z+2, r1	; 0x02
     a06:	13 82       	std	Z+3, r1	; 0x03
            for(int p = i, q = 0; p < j; p++, q++)
     a08:	ca 01       	movw	r24, r20
     a0a:	20 e0       	ldi	r18, 0x00	; 0
     a0c:	30 e0       	ldi	r19, 0x00	; 0
     a0e:	5c a3       	std	Y+36, r21	; 0x24
     a10:	4b a3       	std	Y+35, r20	; 0x23
     a12:	86 17       	cp	r24, r22
     a14:	97 07       	cpc	r25, r23
     a16:	34 f5       	brge	.+76     	; 0xa64 <_Z11gethash_md5Phi+0x150>
            {
                //printf("p = %d\tq = %d\n", p, q);
                X[index] = X[index]  |  (  (uint32_t)stream[p] << (q * 8) );
     a18:	80 80       	ld	r8, Z
     a1a:	91 80       	ldd	r9, Z+1	; 0x01
     a1c:	a2 80       	ldd	r10, Z+2	; 0x02
     a1e:	b3 80       	ldd	r11, Z+3	; 0x03
     a20:	d3 01       	movw	r26, r6
     a22:	a8 0f       	add	r26, r24
     a24:	b9 1f       	adc	r27, r25
     a26:	5c 91       	ld	r21, X
     a28:	d9 01       	movw	r26, r18
     a2a:	aa 0f       	add	r26, r26
     a2c:	bb 1f       	adc	r27, r27
     a2e:	aa 0f       	add	r26, r26
     a30:	bb 1f       	adc	r27, r27
     a32:	aa 0f       	add	r26, r26
     a34:	bb 1f       	adc	r27, r27
     a36:	c5 2e       	mov	r12, r21
     a38:	d1 2c       	mov	r13, r1
     a3a:	e1 2c       	mov	r14, r1
     a3c:	f1 2c       	mov	r15, r1
     a3e:	04 c0       	rjmp	.+8      	; 0xa48 <_Z11gethash_md5Phi+0x134>
     a40:	cc 0c       	add	r12, r12
     a42:	dd 1c       	adc	r13, r13
     a44:	ee 1c       	adc	r14, r14
     a46:	ff 1c       	adc	r15, r15
     a48:	aa 95       	dec	r26
     a4a:	d2 f7       	brpl	.-12     	; 0xa40 <_Z11gethash_md5Phi+0x12c>
     a4c:	c8 28       	or	r12, r8
     a4e:	d9 28       	or	r13, r9
     a50:	ea 28       	or	r14, r10
     a52:	fb 28       	or	r15, r11
     a54:	c0 82       	st	Z, r12
     a56:	d1 82       	std	Z+1, r13	; 0x01
     a58:	e2 82       	std	Z+2, r14	; 0x02
     a5a:	f3 82       	std	Z+3, r15	; 0x03
		
        for(int i = _start, j = _start + 4, index = 0; i < _end; i += 4, j += 4, index++)
        {
            //printf("index = %d\n", index);
            X[index] = 0;
            for(int p = i, q = 0; p < j; p++, q++)
     a5c:	01 96       	adiw	r24, 0x01	; 1
     a5e:	2f 5f       	subi	r18, 0xFF	; 255
     a60:	3f 4f       	sbci	r19, 0xFF	; 255
     a62:	d7 cf       	rjmp	.-82     	; 0xa12 <_Z11gethash_md5Phi+0xfe>
     a64:	4b a1       	ldd	r20, Y+35	; 0x23
     a66:	5c a1       	ldd	r21, Y+36	; 0x24
        uint32_t c_tmp = c;
        uint32_t d_tmp = d;
        //uint32_t* X = new uint32_t[16];
		uint32_t* X = (uint32_t*)malloc(16 * sizeof(uint32_t));
		
        for(int i = _start, j = _start + 4, index = 0; i < _end; i += 4, j += 4, index++)
     a68:	4c 5f       	subi	r20, 0xFC	; 252
     a6a:	5f 4f       	sbci	r21, 0xFF	; 255
     a6c:	6c 5f       	subi	r22, 0xFC	; 252
     a6e:	7f 4f       	sbci	r23, 0xFF	; 255
     a70:	0f 5f       	subi	r16, 0xFF	; 255
     a72:	1f 4f       	sbci	r17, 0xFF	; 255
     a74:	ba cf       	rjmp	.-140    	; 0x9ea <_Z11gethash_md5Phi+0xd6>
        //USART_TX(0x0d);//переход в начало строки
        //USART_TX(0x0a);//переход на новую строку
		///////////////////////////////////////////////

        //1
        raund_func(&a, &b, &c, &d, X[0], 7, T[0],    FunF(b, c, d));
     a76:	4d 81       	ldd	r20, Y+5	; 0x05
     a78:	5e 81       	ldd	r21, Y+6	; 0x06
     a7a:	6f 81       	ldd	r22, Y+7	; 0x07
     a7c:	78 85       	ldd	r23, Y+8	; 0x08
     a7e:	09 85       	ldd	r16, Y+9	; 0x09
     a80:	1a 85       	ldd	r17, Y+10	; 0x0a
     a82:	2b 85       	ldd	r18, Y+11	; 0x0b
     a84:	3c 85       	ldd	r19, Y+12	; 0x0c
     a86:	04 23       	and	r16, r20
     a88:	15 23       	and	r17, r21
     a8a:	26 23       	and	r18, r22
     a8c:	37 23       	and	r19, r23
     a8e:	40 95       	com	r20
     a90:	50 95       	com	r21
     a92:	60 95       	com	r22
     a94:	70 95       	com	r23
     a96:	8d 85       	ldd	r24, Y+13	; 0x0d
     a98:	9e 85       	ldd	r25, Y+14	; 0x0e
     a9a:	af 85       	ldd	r26, Y+15	; 0x0f
     a9c:	b8 89       	ldd	r27, Y+16	; 0x10
     a9e:	84 23       	and	r24, r20
     aa0:	95 23       	and	r25, r21
     aa2:	a6 23       	and	r26, r22
     aa4:	b7 23       	and	r27, r23
     aa6:	80 2b       	or	r24, r16
     aa8:	91 2b       	or	r25, r17
     aaa:	a2 2b       	or	r26, r18
     aac:	b3 2b       	or	r27, r19
     aae:	f2 01       	movw	r30, r4
     ab0:	e0 80       	ld	r14, Z
     ab2:	f1 80       	ldd	r15, Z+1	; 0x01
     ab4:	02 81       	ldd	r16, Z+2	; 0x02
     ab6:	13 81       	ldd	r17, Z+3	; 0x03
     ab8:	bf 93       	push	r27
     aba:	af 93       	push	r26
     abc:	9f 93       	push	r25
     abe:	8f 93       	push	r24
     ac0:	0f 2e       	mov	r0, r31
     ac2:	f8 e7       	ldi	r31, 0x78	; 120
     ac4:	8f 2e       	mov	r8, r31
     ac6:	f4 ea       	ldi	r31, 0xA4	; 164
     ac8:	9f 2e       	mov	r9, r31
     aca:	fa e6       	ldi	r31, 0x6A	; 106
     acc:	af 2e       	mov	r10, r31
     ace:	f7 ed       	ldi	r31, 0xD7	; 215
     ad0:	bf 2e       	mov	r11, r31
     ad2:	f0 2d       	mov	r31, r0
     ad4:	0f 2e       	mov	r0, r31
     ad6:	f7 e0       	ldi	r31, 0x07	; 7
     ad8:	cf 2e       	mov	r12, r31
     ada:	d1 2c       	mov	r13, r1
     adc:	f0 2d       	mov	r31, r0
     ade:	9e 01       	movw	r18, r28
     ae0:	23 5f       	subi	r18, 0xF3	; 243
     ae2:	3f 4f       	sbci	r19, 0xFF	; 255
     ae4:	ae 01       	movw	r20, r28
     ae6:	47 5f       	subi	r20, 0xF7	; 247
     ae8:	5f 4f       	sbci	r21, 0xFF	; 255
     aea:	be 01       	movw	r22, r28
     aec:	6b 5f       	subi	r22, 0xFB	; 251
     aee:	7f 4f       	sbci	r23, 0xFF	; 255
     af0:	ce 01       	movw	r24, r28
     af2:	01 96       	adiw	r24, 0x01	; 1
     af4:	b5 de       	rcall	.-662    	; 0x860 <_Z10raund_funcPmS_S_S_mimm>
        raund_func(&d, &a, &b, &c, X[1], 12, T[1],   FunF(a, b, c));
     af6:	49 81       	ldd	r20, Y+1	; 0x01
     af8:	5a 81       	ldd	r21, Y+2	; 0x02
     afa:	6b 81       	ldd	r22, Y+3	; 0x03
     afc:	7c 81       	ldd	r23, Y+4	; 0x04
     afe:	0d 81       	ldd	r16, Y+5	; 0x05
     b00:	1e 81       	ldd	r17, Y+6	; 0x06
     b02:	2f 81       	ldd	r18, Y+7	; 0x07
     b04:	38 85       	ldd	r19, Y+8	; 0x08
     b06:	04 23       	and	r16, r20
     b08:	15 23       	and	r17, r21
     b0a:	26 23       	and	r18, r22
     b0c:	37 23       	and	r19, r23
     b0e:	40 95       	com	r20
     b10:	50 95       	com	r21
     b12:	60 95       	com	r22
     b14:	70 95       	com	r23
     b16:	89 85       	ldd	r24, Y+9	; 0x09
     b18:	9a 85       	ldd	r25, Y+10	; 0x0a
     b1a:	ab 85       	ldd	r26, Y+11	; 0x0b
     b1c:	bc 85       	ldd	r27, Y+12	; 0x0c
     b1e:	84 23       	and	r24, r20
     b20:	95 23       	and	r25, r21
     b22:	a6 23       	and	r26, r22
     b24:	b7 23       	and	r27, r23
     b26:	80 2b       	or	r24, r16
     b28:	91 2b       	or	r25, r17
     b2a:	a2 2b       	or	r26, r18
     b2c:	b3 2b       	or	r27, r19
     b2e:	f2 01       	movw	r30, r4
     b30:	e4 80       	ldd	r14, Z+4	; 0x04
     b32:	f5 80       	ldd	r15, Z+5	; 0x05
     b34:	06 81       	ldd	r16, Z+6	; 0x06
     b36:	17 81       	ldd	r17, Z+7	; 0x07
     b38:	bf 93       	push	r27
     b3a:	af 93       	push	r26
     b3c:	9f 93       	push	r25
     b3e:	8f 93       	push	r24
     b40:	0f 2e       	mov	r0, r31
     b42:	f6 e5       	ldi	r31, 0x56	; 86
     b44:	8f 2e       	mov	r8, r31
     b46:	f7 eb       	ldi	r31, 0xB7	; 183
     b48:	9f 2e       	mov	r9, r31
     b4a:	f7 ec       	ldi	r31, 0xC7	; 199
     b4c:	af 2e       	mov	r10, r31
     b4e:	f8 ee       	ldi	r31, 0xE8	; 232
     b50:	bf 2e       	mov	r11, r31
     b52:	f0 2d       	mov	r31, r0
     b54:	0f 2e       	mov	r0, r31
     b56:	fc e0       	ldi	r31, 0x0C	; 12
     b58:	cf 2e       	mov	r12, r31
     b5a:	d1 2c       	mov	r13, r1
     b5c:	f0 2d       	mov	r31, r0
     b5e:	9e 01       	movw	r18, r28
     b60:	27 5f       	subi	r18, 0xF7	; 247
     b62:	3f 4f       	sbci	r19, 0xFF	; 255
     b64:	ae 01       	movw	r20, r28
     b66:	4b 5f       	subi	r20, 0xFB	; 251
     b68:	5f 4f       	sbci	r21, 0xFF	; 255
     b6a:	be 01       	movw	r22, r28
     b6c:	6f 5f       	subi	r22, 0xFF	; 255
     b6e:	7f 4f       	sbci	r23, 0xFF	; 255
     b70:	ce 01       	movw	r24, r28
     b72:	0d 96       	adiw	r24, 0x0d	; 13
     b74:	75 de       	rcall	.-790    	; 0x860 <_Z10raund_funcPmS_S_S_mimm>
        raund_func(&c, &d, &a, &b, X[2], 17, T[2],   FunF(d, a, b));
     b76:	4d 85       	ldd	r20, Y+13	; 0x0d
     b78:	5e 85       	ldd	r21, Y+14	; 0x0e
     b7a:	6f 85       	ldd	r22, Y+15	; 0x0f
     b7c:	78 89       	ldd	r23, Y+16	; 0x10
     b7e:	09 81       	ldd	r16, Y+1	; 0x01
     b80:	1a 81       	ldd	r17, Y+2	; 0x02
     b82:	2b 81       	ldd	r18, Y+3	; 0x03
     b84:	3c 81       	ldd	r19, Y+4	; 0x04
     b86:	04 23       	and	r16, r20
     b88:	15 23       	and	r17, r21
     b8a:	26 23       	and	r18, r22
     b8c:	37 23       	and	r19, r23
     b8e:	40 95       	com	r20
     b90:	50 95       	com	r21
     b92:	60 95       	com	r22
     b94:	70 95       	com	r23
     b96:	8d 81       	ldd	r24, Y+5	; 0x05
     b98:	9e 81       	ldd	r25, Y+6	; 0x06
     b9a:	af 81       	ldd	r26, Y+7	; 0x07
     b9c:	b8 85       	ldd	r27, Y+8	; 0x08
     b9e:	84 23       	and	r24, r20
     ba0:	95 23       	and	r25, r21
     ba2:	a6 23       	and	r26, r22
     ba4:	b7 23       	and	r27, r23
     ba6:	80 2b       	or	r24, r16
     ba8:	91 2b       	or	r25, r17
     baa:	a2 2b       	or	r26, r18
     bac:	b3 2b       	or	r27, r19
     bae:	f2 01       	movw	r30, r4
     bb0:	e0 84       	ldd	r14, Z+8	; 0x08
     bb2:	f1 84       	ldd	r15, Z+9	; 0x09
     bb4:	02 85       	ldd	r16, Z+10	; 0x0a
     bb6:	13 85       	ldd	r17, Z+11	; 0x0b
     bb8:	bf 93       	push	r27
     bba:	af 93       	push	r26
     bbc:	9f 93       	push	r25
     bbe:	8f 93       	push	r24
     bc0:	0f 2e       	mov	r0, r31
     bc2:	fb ed       	ldi	r31, 0xDB	; 219
     bc4:	8f 2e       	mov	r8, r31
     bc6:	f0 e7       	ldi	r31, 0x70	; 112
     bc8:	9f 2e       	mov	r9, r31
     bca:	f0 e2       	ldi	r31, 0x20	; 32
     bcc:	af 2e       	mov	r10, r31
     bce:	f4 e2       	ldi	r31, 0x24	; 36
     bd0:	bf 2e       	mov	r11, r31
     bd2:	f0 2d       	mov	r31, r0
     bd4:	0f 2e       	mov	r0, r31
     bd6:	f1 e1       	ldi	r31, 0x11	; 17
     bd8:	cf 2e       	mov	r12, r31
     bda:	d1 2c       	mov	r13, r1
     bdc:	f0 2d       	mov	r31, r0
     bde:	9e 01       	movw	r18, r28
     be0:	2b 5f       	subi	r18, 0xFB	; 251
     be2:	3f 4f       	sbci	r19, 0xFF	; 255
     be4:	ae 01       	movw	r20, r28
     be6:	4f 5f       	subi	r20, 0xFF	; 255
     be8:	5f 4f       	sbci	r21, 0xFF	; 255
     bea:	be 01       	movw	r22, r28
     bec:	63 5f       	subi	r22, 0xF3	; 243
     bee:	7f 4f       	sbci	r23, 0xFF	; 255
     bf0:	ce 01       	movw	r24, r28
     bf2:	09 96       	adiw	r24, 0x09	; 9
     bf4:	35 de       	rcall	.-918    	; 0x860 <_Z10raund_funcPmS_S_S_mimm>
        raund_func(&b, &c, &d, &a, X[3], 22, T[3],   FunF(c, d, a));
     bf6:	49 85       	ldd	r20, Y+9	; 0x09
     bf8:	5a 85       	ldd	r21, Y+10	; 0x0a
     bfa:	6b 85       	ldd	r22, Y+11	; 0x0b
     bfc:	7c 85       	ldd	r23, Y+12	; 0x0c
     bfe:	0d 85       	ldd	r16, Y+13	; 0x0d
     c00:	1e 85       	ldd	r17, Y+14	; 0x0e
     c02:	2f 85       	ldd	r18, Y+15	; 0x0f
     c04:	38 89       	ldd	r19, Y+16	; 0x10
     c06:	04 23       	and	r16, r20
     c08:	15 23       	and	r17, r21
     c0a:	26 23       	and	r18, r22
     c0c:	37 23       	and	r19, r23
     c0e:	40 95       	com	r20
     c10:	50 95       	com	r21
     c12:	60 95       	com	r22
     c14:	70 95       	com	r23
     c16:	89 81       	ldd	r24, Y+1	; 0x01
     c18:	9a 81       	ldd	r25, Y+2	; 0x02
     c1a:	ab 81       	ldd	r26, Y+3	; 0x03
     c1c:	bc 81       	ldd	r27, Y+4	; 0x04
     c1e:	84 23       	and	r24, r20
     c20:	95 23       	and	r25, r21
     c22:	a6 23       	and	r26, r22
     c24:	b7 23       	and	r27, r23
     c26:	80 2b       	or	r24, r16
     c28:	91 2b       	or	r25, r17
     c2a:	a2 2b       	or	r26, r18
     c2c:	b3 2b       	or	r27, r19
     c2e:	f2 01       	movw	r30, r4
     c30:	e4 84       	ldd	r14, Z+12	; 0x0c
     c32:	f5 84       	ldd	r15, Z+13	; 0x0d
     c34:	06 85       	ldd	r16, Z+14	; 0x0e
     c36:	17 85       	ldd	r17, Z+15	; 0x0f
     c38:	bf 93       	push	r27
     c3a:	af 93       	push	r26
     c3c:	9f 93       	push	r25
     c3e:	8f 93       	push	r24
     c40:	0f 2e       	mov	r0, r31
     c42:	fe ee       	ldi	r31, 0xEE	; 238
     c44:	8f 2e       	mov	r8, r31
     c46:	fe ec       	ldi	r31, 0xCE	; 206
     c48:	9f 2e       	mov	r9, r31
     c4a:	fd eb       	ldi	r31, 0xBD	; 189
     c4c:	af 2e       	mov	r10, r31
     c4e:	f1 ec       	ldi	r31, 0xC1	; 193
     c50:	bf 2e       	mov	r11, r31
     c52:	f0 2d       	mov	r31, r0
     c54:	0f 2e       	mov	r0, r31
     c56:	f6 e1       	ldi	r31, 0x16	; 22
     c58:	cf 2e       	mov	r12, r31
     c5a:	d1 2c       	mov	r13, r1
     c5c:	f0 2d       	mov	r31, r0
     c5e:	9e 01       	movw	r18, r28
     c60:	2f 5f       	subi	r18, 0xFF	; 255
     c62:	3f 4f       	sbci	r19, 0xFF	; 255
     c64:	ae 01       	movw	r20, r28
     c66:	43 5f       	subi	r20, 0xF3	; 243
     c68:	5f 4f       	sbci	r21, 0xFF	; 255
     c6a:	be 01       	movw	r22, r28
     c6c:	67 5f       	subi	r22, 0xF7	; 247
     c6e:	7f 4f       	sbci	r23, 0xFF	; 255
     c70:	ce 01       	movw	r24, r28
     c72:	05 96       	adiw	r24, 0x05	; 5
     c74:	f5 dd       	rcall	.-1046   	; 0x860 <_Z10raund_funcPmS_S_S_mimm>

        raund_func(&a, &b, &c, &d, X[4], 7, T[4],    FunF(b, c, d));
     c76:	4d 81       	ldd	r20, Y+5	; 0x05
     c78:	5e 81       	ldd	r21, Y+6	; 0x06
     c7a:	6f 81       	ldd	r22, Y+7	; 0x07
     c7c:	78 85       	ldd	r23, Y+8	; 0x08
     c7e:	09 85       	ldd	r16, Y+9	; 0x09
     c80:	1a 85       	ldd	r17, Y+10	; 0x0a
     c82:	2b 85       	ldd	r18, Y+11	; 0x0b
     c84:	3c 85       	ldd	r19, Y+12	; 0x0c
     c86:	04 23       	and	r16, r20
     c88:	15 23       	and	r17, r21
     c8a:	26 23       	and	r18, r22
     c8c:	37 23       	and	r19, r23
     c8e:	40 95       	com	r20
     c90:	50 95       	com	r21
     c92:	60 95       	com	r22
     c94:	70 95       	com	r23
     c96:	8d 85       	ldd	r24, Y+13	; 0x0d
     c98:	9e 85       	ldd	r25, Y+14	; 0x0e
     c9a:	af 85       	ldd	r26, Y+15	; 0x0f
     c9c:	b8 89       	ldd	r27, Y+16	; 0x10
     c9e:	84 23       	and	r24, r20
     ca0:	95 23       	and	r25, r21
     ca2:	a6 23       	and	r26, r22
     ca4:	b7 23       	and	r27, r23
     ca6:	80 2b       	or	r24, r16
     ca8:	91 2b       	or	r25, r17
     caa:	a2 2b       	or	r26, r18
     cac:	b3 2b       	or	r27, r19
     cae:	f2 01       	movw	r30, r4
     cb0:	e0 88       	ldd	r14, Z+16	; 0x10
     cb2:	f1 88       	ldd	r15, Z+17	; 0x11
     cb4:	02 89       	ldd	r16, Z+18	; 0x12
     cb6:	13 89       	ldd	r17, Z+19	; 0x13
     cb8:	bf 93       	push	r27
     cba:	af 93       	push	r26
     cbc:	9f 93       	push	r25
     cbe:	8f 93       	push	r24
     cc0:	0f 2e       	mov	r0, r31
     cc2:	ff ea       	ldi	r31, 0xAF	; 175
     cc4:	8f 2e       	mov	r8, r31
     cc6:	ff e0       	ldi	r31, 0x0F	; 15
     cc8:	9f 2e       	mov	r9, r31
     cca:	fc e7       	ldi	r31, 0x7C	; 124
     ccc:	af 2e       	mov	r10, r31
     cce:	f5 ef       	ldi	r31, 0xF5	; 245
     cd0:	bf 2e       	mov	r11, r31
     cd2:	f0 2d       	mov	r31, r0
     cd4:	0f 2e       	mov	r0, r31
     cd6:	f7 e0       	ldi	r31, 0x07	; 7
     cd8:	cf 2e       	mov	r12, r31
     cda:	d1 2c       	mov	r13, r1
     cdc:	f0 2d       	mov	r31, r0
     cde:	9e 01       	movw	r18, r28
     ce0:	23 5f       	subi	r18, 0xF3	; 243
     ce2:	3f 4f       	sbci	r19, 0xFF	; 255
     ce4:	ae 01       	movw	r20, r28
     ce6:	47 5f       	subi	r20, 0xF7	; 247
     ce8:	5f 4f       	sbci	r21, 0xFF	; 255
     cea:	be 01       	movw	r22, r28
     cec:	6b 5f       	subi	r22, 0xFB	; 251
     cee:	7f 4f       	sbci	r23, 0xFF	; 255
     cf0:	ce 01       	movw	r24, r28
     cf2:	01 96       	adiw	r24, 0x01	; 1
     cf4:	b5 dd       	rcall	.-1174   	; 0x860 <_Z10raund_funcPmS_S_S_mimm>
        raund_func(&d, &a, &b, &c, X[5], 12, T[5],   FunF(a, b, c));
     cf6:	49 81       	ldd	r20, Y+1	; 0x01
     cf8:	5a 81       	ldd	r21, Y+2	; 0x02
     cfa:	6b 81       	ldd	r22, Y+3	; 0x03
     cfc:	7c 81       	ldd	r23, Y+4	; 0x04
     cfe:	0d 81       	ldd	r16, Y+5	; 0x05
     d00:	1e 81       	ldd	r17, Y+6	; 0x06
     d02:	2f 81       	ldd	r18, Y+7	; 0x07
     d04:	38 85       	ldd	r19, Y+8	; 0x08
     d06:	04 23       	and	r16, r20
     d08:	15 23       	and	r17, r21
     d0a:	26 23       	and	r18, r22
     d0c:	37 23       	and	r19, r23
     d0e:	40 95       	com	r20
     d10:	50 95       	com	r21
     d12:	60 95       	com	r22
     d14:	70 95       	com	r23
     d16:	89 85       	ldd	r24, Y+9	; 0x09
     d18:	9a 85       	ldd	r25, Y+10	; 0x0a
     d1a:	ab 85       	ldd	r26, Y+11	; 0x0b
     d1c:	bc 85       	ldd	r27, Y+12	; 0x0c
     d1e:	84 23       	and	r24, r20
     d20:	95 23       	and	r25, r21
     d22:	a6 23       	and	r26, r22
     d24:	b7 23       	and	r27, r23
     d26:	80 2b       	or	r24, r16
     d28:	91 2b       	or	r25, r17
     d2a:	a2 2b       	or	r26, r18
     d2c:	b3 2b       	or	r27, r19
     d2e:	f2 01       	movw	r30, r4
     d30:	e4 88       	ldd	r14, Z+20	; 0x14
     d32:	f5 88       	ldd	r15, Z+21	; 0x15
     d34:	06 89       	ldd	r16, Z+22	; 0x16
     d36:	17 89       	ldd	r17, Z+23	; 0x17
     d38:	bf 93       	push	r27
     d3a:	af 93       	push	r26
     d3c:	9f 93       	push	r25
     d3e:	8f 93       	push	r24
     d40:	0f 2e       	mov	r0, r31
     d42:	fa e2       	ldi	r31, 0x2A	; 42
     d44:	8f 2e       	mov	r8, r31
     d46:	f6 ec       	ldi	r31, 0xC6	; 198
     d48:	9f 2e       	mov	r9, r31
     d4a:	f7 e8       	ldi	r31, 0x87	; 135
     d4c:	af 2e       	mov	r10, r31
     d4e:	f7 e4       	ldi	r31, 0x47	; 71
     d50:	bf 2e       	mov	r11, r31
     d52:	f0 2d       	mov	r31, r0
     d54:	0f 2e       	mov	r0, r31
     d56:	fc e0       	ldi	r31, 0x0C	; 12
     d58:	cf 2e       	mov	r12, r31
     d5a:	d1 2c       	mov	r13, r1
     d5c:	f0 2d       	mov	r31, r0
     d5e:	9e 01       	movw	r18, r28
     d60:	27 5f       	subi	r18, 0xF7	; 247
     d62:	3f 4f       	sbci	r19, 0xFF	; 255
     d64:	ae 01       	movw	r20, r28
     d66:	4b 5f       	subi	r20, 0xFB	; 251
     d68:	5f 4f       	sbci	r21, 0xFF	; 255
     d6a:	be 01       	movw	r22, r28
     d6c:	6f 5f       	subi	r22, 0xFF	; 255
     d6e:	7f 4f       	sbci	r23, 0xFF	; 255
     d70:	ce 01       	movw	r24, r28
     d72:	0d 96       	adiw	r24, 0x0d	; 13
     d74:	75 dd       	rcall	.-1302   	; 0x860 <_Z10raund_funcPmS_S_S_mimm>
        raund_func(&c, &d, &a, &b, X[6], 17, T[6],   FunF(d, a, b));
     d76:	4d 85       	ldd	r20, Y+13	; 0x0d
     d78:	5e 85       	ldd	r21, Y+14	; 0x0e
     d7a:	6f 85       	ldd	r22, Y+15	; 0x0f
     d7c:	78 89       	ldd	r23, Y+16	; 0x10
     d7e:	09 81       	ldd	r16, Y+1	; 0x01
     d80:	1a 81       	ldd	r17, Y+2	; 0x02
     d82:	2b 81       	ldd	r18, Y+3	; 0x03
     d84:	3c 81       	ldd	r19, Y+4	; 0x04
     d86:	04 23       	and	r16, r20
     d88:	15 23       	and	r17, r21
     d8a:	26 23       	and	r18, r22
     d8c:	37 23       	and	r19, r23
     d8e:	40 95       	com	r20
     d90:	50 95       	com	r21
     d92:	60 95       	com	r22
     d94:	70 95       	com	r23
     d96:	8d 81       	ldd	r24, Y+5	; 0x05
     d98:	9e 81       	ldd	r25, Y+6	; 0x06
     d9a:	af 81       	ldd	r26, Y+7	; 0x07
     d9c:	b8 85       	ldd	r27, Y+8	; 0x08
     d9e:	84 23       	and	r24, r20
     da0:	95 23       	and	r25, r21
     da2:	a6 23       	and	r26, r22
     da4:	b7 23       	and	r27, r23
     da6:	80 2b       	or	r24, r16
     da8:	91 2b       	or	r25, r17
     daa:	a2 2b       	or	r26, r18
     dac:	b3 2b       	or	r27, r19
     dae:	f2 01       	movw	r30, r4
     db0:	e0 8c       	ldd	r14, Z+24	; 0x18
     db2:	f1 8c       	ldd	r15, Z+25	; 0x19
     db4:	02 8d       	ldd	r16, Z+26	; 0x1a
     db6:	13 8d       	ldd	r17, Z+27	; 0x1b
     db8:	bf 93       	push	r27
     dba:	af 93       	push	r26
     dbc:	9f 93       	push	r25
     dbe:	8f 93       	push	r24
     dc0:	0f 2e       	mov	r0, r31
     dc2:	f3 e1       	ldi	r31, 0x13	; 19
     dc4:	8f 2e       	mov	r8, r31
     dc6:	f6 e4       	ldi	r31, 0x46	; 70
     dc8:	9f 2e       	mov	r9, r31
     dca:	f0 e3       	ldi	r31, 0x30	; 48
     dcc:	af 2e       	mov	r10, r31
     dce:	f8 ea       	ldi	r31, 0xA8	; 168
     dd0:	bf 2e       	mov	r11, r31
     dd2:	f0 2d       	mov	r31, r0
     dd4:	0f 2e       	mov	r0, r31
     dd6:	f1 e1       	ldi	r31, 0x11	; 17
     dd8:	cf 2e       	mov	r12, r31
     dda:	d1 2c       	mov	r13, r1
     ddc:	f0 2d       	mov	r31, r0
     dde:	9e 01       	movw	r18, r28
     de0:	2b 5f       	subi	r18, 0xFB	; 251
     de2:	3f 4f       	sbci	r19, 0xFF	; 255
     de4:	ae 01       	movw	r20, r28
     de6:	4f 5f       	subi	r20, 0xFF	; 255
     de8:	5f 4f       	sbci	r21, 0xFF	; 255
     dea:	be 01       	movw	r22, r28
     dec:	63 5f       	subi	r22, 0xF3	; 243
     dee:	7f 4f       	sbci	r23, 0xFF	; 255
     df0:	ce 01       	movw	r24, r28
     df2:	09 96       	adiw	r24, 0x09	; 9
     df4:	35 dd       	rcall	.-1430   	; 0x860 <_Z10raund_funcPmS_S_S_mimm>
        raund_func(&b, &c, &d, &a, X[7], 22, T[7],   FunF(c, d, a));
     df6:	49 85       	ldd	r20, Y+9	; 0x09
     df8:	5a 85       	ldd	r21, Y+10	; 0x0a
     dfa:	6b 85       	ldd	r22, Y+11	; 0x0b
     dfc:	7c 85       	ldd	r23, Y+12	; 0x0c
     dfe:	0d 85       	ldd	r16, Y+13	; 0x0d
     e00:	1e 85       	ldd	r17, Y+14	; 0x0e
     e02:	2f 85       	ldd	r18, Y+15	; 0x0f
     e04:	38 89       	ldd	r19, Y+16	; 0x10
     e06:	04 23       	and	r16, r20
     e08:	15 23       	and	r17, r21
     e0a:	26 23       	and	r18, r22
     e0c:	37 23       	and	r19, r23
     e0e:	40 95       	com	r20
     e10:	50 95       	com	r21
     e12:	60 95       	com	r22
     e14:	70 95       	com	r23
     e16:	89 81       	ldd	r24, Y+1	; 0x01
     e18:	9a 81       	ldd	r25, Y+2	; 0x02
     e1a:	ab 81       	ldd	r26, Y+3	; 0x03
     e1c:	bc 81       	ldd	r27, Y+4	; 0x04
     e1e:	84 23       	and	r24, r20
     e20:	95 23       	and	r25, r21
     e22:	a6 23       	and	r26, r22
     e24:	b7 23       	and	r27, r23
     e26:	80 2b       	or	r24, r16
     e28:	91 2b       	or	r25, r17
     e2a:	a2 2b       	or	r26, r18
     e2c:	b3 2b       	or	r27, r19
     e2e:	f2 01       	movw	r30, r4
     e30:	e4 8c       	ldd	r14, Z+28	; 0x1c
     e32:	f5 8c       	ldd	r15, Z+29	; 0x1d
     e34:	06 8d       	ldd	r16, Z+30	; 0x1e
     e36:	17 8d       	ldd	r17, Z+31	; 0x1f
     e38:	bf 93       	push	r27
     e3a:	af 93       	push	r26
     e3c:	9f 93       	push	r25
     e3e:	8f 93       	push	r24
     e40:	0f 2e       	mov	r0, r31
     e42:	88 24       	eor	r8, r8
     e44:	83 94       	inc	r8
     e46:	f5 e9       	ldi	r31, 0x95	; 149
     e48:	9f 2e       	mov	r9, r31
     e4a:	f6 e4       	ldi	r31, 0x46	; 70
     e4c:	af 2e       	mov	r10, r31
     e4e:	fd ef       	ldi	r31, 0xFD	; 253
     e50:	bf 2e       	mov	r11, r31
     e52:	f0 2d       	mov	r31, r0
     e54:	0f 2e       	mov	r0, r31
     e56:	f6 e1       	ldi	r31, 0x16	; 22
     e58:	cf 2e       	mov	r12, r31
     e5a:	d1 2c       	mov	r13, r1
     e5c:	f0 2d       	mov	r31, r0
     e5e:	9e 01       	movw	r18, r28
     e60:	2f 5f       	subi	r18, 0xFF	; 255
     e62:	3f 4f       	sbci	r19, 0xFF	; 255
     e64:	ae 01       	movw	r20, r28
     e66:	43 5f       	subi	r20, 0xF3	; 243
     e68:	5f 4f       	sbci	r21, 0xFF	; 255
     e6a:	be 01       	movw	r22, r28
     e6c:	67 5f       	subi	r22, 0xF7	; 247
     e6e:	7f 4f       	sbci	r23, 0xFF	; 255
     e70:	ce 01       	movw	r24, r28
     e72:	05 96       	adiw	r24, 0x05	; 5
     e74:	f5 dc       	rcall	.-1558   	; 0x860 <_Z10raund_funcPmS_S_S_mimm>

        raund_func(&a, &b, &c, &d, X[8], 7, T[8],    FunF(b, c, d));
     e76:	4d 81       	ldd	r20, Y+5	; 0x05
     e78:	5e 81       	ldd	r21, Y+6	; 0x06
     e7a:	6f 81       	ldd	r22, Y+7	; 0x07
     e7c:	78 85       	ldd	r23, Y+8	; 0x08
     e7e:	09 85       	ldd	r16, Y+9	; 0x09
     e80:	1a 85       	ldd	r17, Y+10	; 0x0a
     e82:	2b 85       	ldd	r18, Y+11	; 0x0b
     e84:	3c 85       	ldd	r19, Y+12	; 0x0c
     e86:	04 23       	and	r16, r20
     e88:	15 23       	and	r17, r21
     e8a:	26 23       	and	r18, r22
     e8c:	37 23       	and	r19, r23
     e8e:	40 95       	com	r20
     e90:	50 95       	com	r21
     e92:	60 95       	com	r22
     e94:	70 95       	com	r23
     e96:	8d 85       	ldd	r24, Y+13	; 0x0d
     e98:	9e 85       	ldd	r25, Y+14	; 0x0e
     e9a:	af 85       	ldd	r26, Y+15	; 0x0f
     e9c:	b8 89       	ldd	r27, Y+16	; 0x10
     e9e:	84 23       	and	r24, r20
     ea0:	95 23       	and	r25, r21
     ea2:	a6 23       	and	r26, r22
     ea4:	b7 23       	and	r27, r23
     ea6:	80 2b       	or	r24, r16
     ea8:	91 2b       	or	r25, r17
     eaa:	a2 2b       	or	r26, r18
     eac:	b3 2b       	or	r27, r19
     eae:	f2 01       	movw	r30, r4
     eb0:	e0 a0       	ldd	r14, Z+32	; 0x20
     eb2:	f1 a0       	ldd	r15, Z+33	; 0x21
     eb4:	02 a1       	ldd	r16, Z+34	; 0x22
     eb6:	13 a1       	ldd	r17, Z+35	; 0x23
     eb8:	0f b6       	in	r0, 0x3f	; 63
     eba:	f8 94       	cli
     ebc:	de bf       	out	0x3e, r29	; 62
     ebe:	0f be       	out	0x3f, r0	; 63
     ec0:	cd bf       	out	0x3d, r28	; 61
     ec2:	bf 93       	push	r27
     ec4:	af 93       	push	r26
     ec6:	9f 93       	push	r25
     ec8:	8f 93       	push	r24
     eca:	0f 2e       	mov	r0, r31
     ecc:	f8 ed       	ldi	r31, 0xD8	; 216
     ece:	8f 2e       	mov	r8, r31
     ed0:	f8 e9       	ldi	r31, 0x98	; 152
     ed2:	9f 2e       	mov	r9, r31
     ed4:	f0 e8       	ldi	r31, 0x80	; 128
     ed6:	af 2e       	mov	r10, r31
     ed8:	f9 e6       	ldi	r31, 0x69	; 105
     eda:	bf 2e       	mov	r11, r31
     edc:	f0 2d       	mov	r31, r0
     ede:	0f 2e       	mov	r0, r31
     ee0:	f7 e0       	ldi	r31, 0x07	; 7
     ee2:	cf 2e       	mov	r12, r31
     ee4:	d1 2c       	mov	r13, r1
     ee6:	f0 2d       	mov	r31, r0
     ee8:	9e 01       	movw	r18, r28
     eea:	23 5f       	subi	r18, 0xF3	; 243
     eec:	3f 4f       	sbci	r19, 0xFF	; 255
     eee:	ae 01       	movw	r20, r28
     ef0:	47 5f       	subi	r20, 0xF7	; 247
     ef2:	5f 4f       	sbci	r21, 0xFF	; 255
     ef4:	be 01       	movw	r22, r28
     ef6:	6b 5f       	subi	r22, 0xFB	; 251
     ef8:	7f 4f       	sbci	r23, 0xFF	; 255
     efa:	ce 01       	movw	r24, r28
     efc:	01 96       	adiw	r24, 0x01	; 1
     efe:	b0 dc       	rcall	.-1696   	; 0x860 <_Z10raund_funcPmS_S_S_mimm>
        raund_func(&d, &a, &b, &c, X[9], 12, T[9],   FunF(a, b, c));
     f00:	49 81       	ldd	r20, Y+1	; 0x01
     f02:	5a 81       	ldd	r21, Y+2	; 0x02
     f04:	6b 81       	ldd	r22, Y+3	; 0x03
     f06:	7c 81       	ldd	r23, Y+4	; 0x04
     f08:	0d 81       	ldd	r16, Y+5	; 0x05
     f0a:	1e 81       	ldd	r17, Y+6	; 0x06
     f0c:	2f 81       	ldd	r18, Y+7	; 0x07
     f0e:	38 85       	ldd	r19, Y+8	; 0x08
     f10:	04 23       	and	r16, r20
     f12:	15 23       	and	r17, r21
     f14:	26 23       	and	r18, r22
     f16:	37 23       	and	r19, r23
     f18:	40 95       	com	r20
     f1a:	50 95       	com	r21
     f1c:	60 95       	com	r22
     f1e:	70 95       	com	r23
     f20:	89 85       	ldd	r24, Y+9	; 0x09
     f22:	9a 85       	ldd	r25, Y+10	; 0x0a
     f24:	ab 85       	ldd	r26, Y+11	; 0x0b
     f26:	bc 85       	ldd	r27, Y+12	; 0x0c
     f28:	84 23       	and	r24, r20
     f2a:	95 23       	and	r25, r21
     f2c:	a6 23       	and	r26, r22
     f2e:	b7 23       	and	r27, r23
     f30:	80 2b       	or	r24, r16
     f32:	91 2b       	or	r25, r17
     f34:	a2 2b       	or	r26, r18
     f36:	b3 2b       	or	r27, r19
     f38:	f2 01       	movw	r30, r4
     f3a:	e4 a0       	ldd	r14, Z+36	; 0x24
     f3c:	f5 a0       	ldd	r15, Z+37	; 0x25
     f3e:	06 a1       	ldd	r16, Z+38	; 0x26
     f40:	17 a1       	ldd	r17, Z+39	; 0x27
     f42:	bf 93       	push	r27
     f44:	af 93       	push	r26
     f46:	9f 93       	push	r25
     f48:	8f 93       	push	r24
     f4a:	0f 2e       	mov	r0, r31
     f4c:	ff ea       	ldi	r31, 0xAF	; 175
     f4e:	8f 2e       	mov	r8, r31
     f50:	f7 ef       	ldi	r31, 0xF7	; 247
     f52:	9f 2e       	mov	r9, r31
     f54:	f4 e4       	ldi	r31, 0x44	; 68
     f56:	af 2e       	mov	r10, r31
     f58:	fb e8       	ldi	r31, 0x8B	; 139
     f5a:	bf 2e       	mov	r11, r31
     f5c:	f0 2d       	mov	r31, r0
     f5e:	0f 2e       	mov	r0, r31
     f60:	fc e0       	ldi	r31, 0x0C	; 12
     f62:	cf 2e       	mov	r12, r31
     f64:	d1 2c       	mov	r13, r1
     f66:	f0 2d       	mov	r31, r0
     f68:	9e 01       	movw	r18, r28
     f6a:	27 5f       	subi	r18, 0xF7	; 247
     f6c:	3f 4f       	sbci	r19, 0xFF	; 255
     f6e:	ae 01       	movw	r20, r28
     f70:	4b 5f       	subi	r20, 0xFB	; 251
     f72:	5f 4f       	sbci	r21, 0xFF	; 255
     f74:	be 01       	movw	r22, r28
     f76:	6f 5f       	subi	r22, 0xFF	; 255
     f78:	7f 4f       	sbci	r23, 0xFF	; 255
     f7a:	ce 01       	movw	r24, r28
     f7c:	0d 96       	adiw	r24, 0x0d	; 13
     f7e:	70 dc       	rcall	.-1824   	; 0x860 <_Z10raund_funcPmS_S_S_mimm>
        raund_func(&c, &d, &a, &b, X[10], 17, T[10], FunF(d, a, b));
     f80:	4d 85       	ldd	r20, Y+13	; 0x0d
     f82:	5e 85       	ldd	r21, Y+14	; 0x0e
     f84:	6f 85       	ldd	r22, Y+15	; 0x0f
     f86:	78 89       	ldd	r23, Y+16	; 0x10
     f88:	09 81       	ldd	r16, Y+1	; 0x01
     f8a:	1a 81       	ldd	r17, Y+2	; 0x02
     f8c:	2b 81       	ldd	r18, Y+3	; 0x03
     f8e:	3c 81       	ldd	r19, Y+4	; 0x04
     f90:	04 23       	and	r16, r20
     f92:	15 23       	and	r17, r21
     f94:	26 23       	and	r18, r22
     f96:	37 23       	and	r19, r23
     f98:	40 95       	com	r20
     f9a:	50 95       	com	r21
     f9c:	60 95       	com	r22
     f9e:	70 95       	com	r23
     fa0:	8d 81       	ldd	r24, Y+5	; 0x05
     fa2:	9e 81       	ldd	r25, Y+6	; 0x06
     fa4:	af 81       	ldd	r26, Y+7	; 0x07
     fa6:	b8 85       	ldd	r27, Y+8	; 0x08
     fa8:	84 23       	and	r24, r20
     faa:	95 23       	and	r25, r21
     fac:	a6 23       	and	r26, r22
     fae:	b7 23       	and	r27, r23
     fb0:	80 2b       	or	r24, r16
     fb2:	91 2b       	or	r25, r17
     fb4:	a2 2b       	or	r26, r18
     fb6:	b3 2b       	or	r27, r19
     fb8:	f2 01       	movw	r30, r4
     fba:	e0 a4       	ldd	r14, Z+40	; 0x28
     fbc:	f1 a4       	ldd	r15, Z+41	; 0x29
     fbe:	02 a5       	ldd	r16, Z+42	; 0x2a
     fc0:	13 a5       	ldd	r17, Z+43	; 0x2b
     fc2:	bf 93       	push	r27
     fc4:	af 93       	push	r26
     fc6:	9f 93       	push	r25
     fc8:	8f 93       	push	r24
     fca:	0f 2e       	mov	r0, r31
     fcc:	f1 eb       	ldi	r31, 0xB1	; 177
     fce:	8f 2e       	mov	r8, r31
     fd0:	fb e5       	ldi	r31, 0x5B	; 91
     fd2:	9f 2e       	mov	r9, r31
     fd4:	aa 24       	eor	r10, r10
     fd6:	aa 94       	dec	r10
     fd8:	ba 2c       	mov	r11, r10
     fda:	f0 2d       	mov	r31, r0
     fdc:	0f 2e       	mov	r0, r31
     fde:	f1 e1       	ldi	r31, 0x11	; 17
     fe0:	cf 2e       	mov	r12, r31
     fe2:	d1 2c       	mov	r13, r1
     fe4:	f0 2d       	mov	r31, r0
     fe6:	9e 01       	movw	r18, r28
     fe8:	2b 5f       	subi	r18, 0xFB	; 251
     fea:	3f 4f       	sbci	r19, 0xFF	; 255
     fec:	ae 01       	movw	r20, r28
     fee:	4f 5f       	subi	r20, 0xFF	; 255
     ff0:	5f 4f       	sbci	r21, 0xFF	; 255
     ff2:	be 01       	movw	r22, r28
     ff4:	63 5f       	subi	r22, 0xF3	; 243
     ff6:	7f 4f       	sbci	r23, 0xFF	; 255
     ff8:	ce 01       	movw	r24, r28
     ffa:	09 96       	adiw	r24, 0x09	; 9
     ffc:	31 dc       	rcall	.-1950   	; 0x860 <_Z10raund_funcPmS_S_S_mimm>
        raund_func(&b, &c, &d, &a, X[11], 22, T[11], FunF(c, d, a));
     ffe:	49 85       	ldd	r20, Y+9	; 0x09
    1000:	5a 85       	ldd	r21, Y+10	; 0x0a
    1002:	6b 85       	ldd	r22, Y+11	; 0x0b
    1004:	7c 85       	ldd	r23, Y+12	; 0x0c
    1006:	0d 85       	ldd	r16, Y+13	; 0x0d
    1008:	1e 85       	ldd	r17, Y+14	; 0x0e
    100a:	2f 85       	ldd	r18, Y+15	; 0x0f
    100c:	38 89       	ldd	r19, Y+16	; 0x10
    100e:	04 23       	and	r16, r20
    1010:	15 23       	and	r17, r21
    1012:	26 23       	and	r18, r22
    1014:	37 23       	and	r19, r23
    1016:	40 95       	com	r20
    1018:	50 95       	com	r21
    101a:	60 95       	com	r22
    101c:	70 95       	com	r23
    101e:	89 81       	ldd	r24, Y+1	; 0x01
    1020:	9a 81       	ldd	r25, Y+2	; 0x02
    1022:	ab 81       	ldd	r26, Y+3	; 0x03
    1024:	bc 81       	ldd	r27, Y+4	; 0x04
    1026:	84 23       	and	r24, r20
    1028:	95 23       	and	r25, r21
    102a:	a6 23       	and	r26, r22
    102c:	b7 23       	and	r27, r23
    102e:	80 2b       	or	r24, r16
    1030:	91 2b       	or	r25, r17
    1032:	a2 2b       	or	r26, r18
    1034:	b3 2b       	or	r27, r19
    1036:	f2 01       	movw	r30, r4
    1038:	e4 a4       	ldd	r14, Z+44	; 0x2c
    103a:	f5 a4       	ldd	r15, Z+45	; 0x2d
    103c:	06 a5       	ldd	r16, Z+46	; 0x2e
    103e:	17 a5       	ldd	r17, Z+47	; 0x2f
    1040:	bf 93       	push	r27
    1042:	af 93       	push	r26
    1044:	9f 93       	push	r25
    1046:	8f 93       	push	r24
    1048:	0f 2e       	mov	r0, r31
    104a:	fe eb       	ldi	r31, 0xBE	; 190
    104c:	8f 2e       	mov	r8, r31
    104e:	f7 ed       	ldi	r31, 0xD7	; 215
    1050:	9f 2e       	mov	r9, r31
    1052:	fc e5       	ldi	r31, 0x5C	; 92
    1054:	af 2e       	mov	r10, r31
    1056:	f9 e8       	ldi	r31, 0x89	; 137
    1058:	bf 2e       	mov	r11, r31
    105a:	f0 2d       	mov	r31, r0
    105c:	0f 2e       	mov	r0, r31
    105e:	f6 e1       	ldi	r31, 0x16	; 22
    1060:	cf 2e       	mov	r12, r31
    1062:	d1 2c       	mov	r13, r1
    1064:	f0 2d       	mov	r31, r0
    1066:	9e 01       	movw	r18, r28
    1068:	2f 5f       	subi	r18, 0xFF	; 255
    106a:	3f 4f       	sbci	r19, 0xFF	; 255
    106c:	ae 01       	movw	r20, r28
    106e:	43 5f       	subi	r20, 0xF3	; 243
    1070:	5f 4f       	sbci	r21, 0xFF	; 255
    1072:	be 01       	movw	r22, r28
    1074:	67 5f       	subi	r22, 0xF7	; 247
    1076:	7f 4f       	sbci	r23, 0xFF	; 255
    1078:	ce 01       	movw	r24, r28
    107a:	05 96       	adiw	r24, 0x05	; 5
    107c:	f1 db       	rcall	.-2078   	; 0x860 <_Z10raund_funcPmS_S_S_mimm>

        raund_func(&a, &b, &c, &d, X[12], 7, T[12],  FunF(b, c, d));
    107e:	4d 81       	ldd	r20, Y+5	; 0x05
    1080:	5e 81       	ldd	r21, Y+6	; 0x06
    1082:	6f 81       	ldd	r22, Y+7	; 0x07
    1084:	78 85       	ldd	r23, Y+8	; 0x08
    1086:	09 85       	ldd	r16, Y+9	; 0x09
    1088:	1a 85       	ldd	r17, Y+10	; 0x0a
    108a:	2b 85       	ldd	r18, Y+11	; 0x0b
    108c:	3c 85       	ldd	r19, Y+12	; 0x0c
    108e:	04 23       	and	r16, r20
    1090:	15 23       	and	r17, r21
    1092:	26 23       	and	r18, r22
    1094:	37 23       	and	r19, r23
    1096:	40 95       	com	r20
    1098:	50 95       	com	r21
    109a:	60 95       	com	r22
    109c:	70 95       	com	r23
    109e:	8d 85       	ldd	r24, Y+13	; 0x0d
    10a0:	9e 85       	ldd	r25, Y+14	; 0x0e
    10a2:	af 85       	ldd	r26, Y+15	; 0x0f
    10a4:	b8 89       	ldd	r27, Y+16	; 0x10
    10a6:	84 23       	and	r24, r20
    10a8:	95 23       	and	r25, r21
    10aa:	a6 23       	and	r26, r22
    10ac:	b7 23       	and	r27, r23
    10ae:	80 2b       	or	r24, r16
    10b0:	91 2b       	or	r25, r17
    10b2:	a2 2b       	or	r26, r18
    10b4:	b3 2b       	or	r27, r19
    10b6:	f2 01       	movw	r30, r4
    10b8:	e0 a8       	ldd	r14, Z+48	; 0x30
    10ba:	f1 a8       	ldd	r15, Z+49	; 0x31
    10bc:	02 a9       	ldd	r16, Z+50	; 0x32
    10be:	13 a9       	ldd	r17, Z+51	; 0x33
    10c0:	bf 93       	push	r27
    10c2:	af 93       	push	r26
    10c4:	9f 93       	push	r25
    10c6:	8f 93       	push	r24
    10c8:	0f 2e       	mov	r0, r31
    10ca:	f2 e2       	ldi	r31, 0x22	; 34
    10cc:	8f 2e       	mov	r8, r31
    10ce:	f1 e1       	ldi	r31, 0x11	; 17
    10d0:	9f 2e       	mov	r9, r31
    10d2:	f0 e9       	ldi	r31, 0x90	; 144
    10d4:	af 2e       	mov	r10, r31
    10d6:	fb e6       	ldi	r31, 0x6B	; 107
    10d8:	bf 2e       	mov	r11, r31
    10da:	f0 2d       	mov	r31, r0
    10dc:	0f 2e       	mov	r0, r31
    10de:	f7 e0       	ldi	r31, 0x07	; 7
    10e0:	cf 2e       	mov	r12, r31
    10e2:	d1 2c       	mov	r13, r1
    10e4:	f0 2d       	mov	r31, r0
    10e6:	9e 01       	movw	r18, r28
    10e8:	23 5f       	subi	r18, 0xF3	; 243
    10ea:	3f 4f       	sbci	r19, 0xFF	; 255
    10ec:	ae 01       	movw	r20, r28
    10ee:	47 5f       	subi	r20, 0xF7	; 247
    10f0:	5f 4f       	sbci	r21, 0xFF	; 255
    10f2:	be 01       	movw	r22, r28
    10f4:	6b 5f       	subi	r22, 0xFB	; 251
    10f6:	7f 4f       	sbci	r23, 0xFF	; 255
    10f8:	ce 01       	movw	r24, r28
    10fa:	01 96       	adiw	r24, 0x01	; 1
    10fc:	b1 db       	rcall	.-2206   	; 0x860 <_Z10raund_funcPmS_S_S_mimm>
        raund_func(&d, &a, &b, &c, X[13], 12, T[13], FunF(a, b, c));
    10fe:	49 81       	ldd	r20, Y+1	; 0x01
    1100:	5a 81       	ldd	r21, Y+2	; 0x02
    1102:	6b 81       	ldd	r22, Y+3	; 0x03
    1104:	7c 81       	ldd	r23, Y+4	; 0x04
    1106:	0d 81       	ldd	r16, Y+5	; 0x05
    1108:	1e 81       	ldd	r17, Y+6	; 0x06
    110a:	2f 81       	ldd	r18, Y+7	; 0x07
    110c:	38 85       	ldd	r19, Y+8	; 0x08
    110e:	04 23       	and	r16, r20
    1110:	15 23       	and	r17, r21
    1112:	26 23       	and	r18, r22
    1114:	37 23       	and	r19, r23
    1116:	40 95       	com	r20
    1118:	50 95       	com	r21
    111a:	60 95       	com	r22
    111c:	70 95       	com	r23
    111e:	89 85       	ldd	r24, Y+9	; 0x09
    1120:	9a 85       	ldd	r25, Y+10	; 0x0a
    1122:	ab 85       	ldd	r26, Y+11	; 0x0b
    1124:	bc 85       	ldd	r27, Y+12	; 0x0c
    1126:	84 23       	and	r24, r20
    1128:	95 23       	and	r25, r21
    112a:	a6 23       	and	r26, r22
    112c:	b7 23       	and	r27, r23
    112e:	80 2b       	or	r24, r16
    1130:	91 2b       	or	r25, r17
    1132:	a2 2b       	or	r26, r18
    1134:	b3 2b       	or	r27, r19
    1136:	f2 01       	movw	r30, r4
    1138:	e4 a8       	ldd	r14, Z+52	; 0x34
    113a:	f5 a8       	ldd	r15, Z+53	; 0x35
    113c:	06 a9       	ldd	r16, Z+54	; 0x36
    113e:	17 a9       	ldd	r17, Z+55	; 0x37
    1140:	bf 93       	push	r27
    1142:	af 93       	push	r26
    1144:	9f 93       	push	r25
    1146:	8f 93       	push	r24
    1148:	0f 2e       	mov	r0, r31
    114a:	f3 e9       	ldi	r31, 0x93	; 147
    114c:	8f 2e       	mov	r8, r31
    114e:	f1 e7       	ldi	r31, 0x71	; 113
    1150:	9f 2e       	mov	r9, r31
    1152:	f8 e9       	ldi	r31, 0x98	; 152
    1154:	af 2e       	mov	r10, r31
    1156:	fd ef       	ldi	r31, 0xFD	; 253
    1158:	bf 2e       	mov	r11, r31
    115a:	f0 2d       	mov	r31, r0
    115c:	0f 2e       	mov	r0, r31
    115e:	fc e0       	ldi	r31, 0x0C	; 12
    1160:	cf 2e       	mov	r12, r31
    1162:	d1 2c       	mov	r13, r1
    1164:	f0 2d       	mov	r31, r0
    1166:	9e 01       	movw	r18, r28
    1168:	27 5f       	subi	r18, 0xF7	; 247
    116a:	3f 4f       	sbci	r19, 0xFF	; 255
    116c:	ae 01       	movw	r20, r28
    116e:	4b 5f       	subi	r20, 0xFB	; 251
    1170:	5f 4f       	sbci	r21, 0xFF	; 255
    1172:	be 01       	movw	r22, r28
    1174:	6f 5f       	subi	r22, 0xFF	; 255
    1176:	7f 4f       	sbci	r23, 0xFF	; 255
    1178:	ce 01       	movw	r24, r28
    117a:	0d 96       	adiw	r24, 0x0d	; 13
    117c:	71 db       	rcall	.-2334   	; 0x860 <_Z10raund_funcPmS_S_S_mimm>
        raund_func(&c, &d, &a, &b, X[14], 17, T[14], FunF(d, a, b));
    117e:	4d 85       	ldd	r20, Y+13	; 0x0d
    1180:	5e 85       	ldd	r21, Y+14	; 0x0e
    1182:	6f 85       	ldd	r22, Y+15	; 0x0f
    1184:	78 89       	ldd	r23, Y+16	; 0x10
    1186:	09 81       	ldd	r16, Y+1	; 0x01
    1188:	1a 81       	ldd	r17, Y+2	; 0x02
    118a:	2b 81       	ldd	r18, Y+3	; 0x03
    118c:	3c 81       	ldd	r19, Y+4	; 0x04
    118e:	04 23       	and	r16, r20
    1190:	15 23       	and	r17, r21
    1192:	26 23       	and	r18, r22
    1194:	37 23       	and	r19, r23
    1196:	40 95       	com	r20
    1198:	50 95       	com	r21
    119a:	60 95       	com	r22
    119c:	70 95       	com	r23
    119e:	8d 81       	ldd	r24, Y+5	; 0x05
    11a0:	9e 81       	ldd	r25, Y+6	; 0x06
    11a2:	af 81       	ldd	r26, Y+7	; 0x07
    11a4:	b8 85       	ldd	r27, Y+8	; 0x08
    11a6:	84 23       	and	r24, r20
    11a8:	95 23       	and	r25, r21
    11aa:	a6 23       	and	r26, r22
    11ac:	b7 23       	and	r27, r23
    11ae:	80 2b       	or	r24, r16
    11b0:	91 2b       	or	r25, r17
    11b2:	a2 2b       	or	r26, r18
    11b4:	b3 2b       	or	r27, r19
    11b6:	f2 01       	movw	r30, r4
    11b8:	e0 ac       	ldd	r14, Z+56	; 0x38
    11ba:	f1 ac       	ldd	r15, Z+57	; 0x39
    11bc:	02 ad       	ldd	r16, Z+58	; 0x3a
    11be:	13 ad       	ldd	r17, Z+59	; 0x3b
    11c0:	bf 93       	push	r27
    11c2:	af 93       	push	r26
    11c4:	9f 93       	push	r25
    11c6:	8f 93       	push	r24
    11c8:	0f 2e       	mov	r0, r31
    11ca:	fe e8       	ldi	r31, 0x8E	; 142
    11cc:	8f 2e       	mov	r8, r31
    11ce:	f3 e4       	ldi	r31, 0x43	; 67
    11d0:	9f 2e       	mov	r9, r31
    11d2:	f9 e7       	ldi	r31, 0x79	; 121
    11d4:	af 2e       	mov	r10, r31
    11d6:	f6 ea       	ldi	r31, 0xA6	; 166
    11d8:	bf 2e       	mov	r11, r31
    11da:	f0 2d       	mov	r31, r0
    11dc:	0f 2e       	mov	r0, r31
    11de:	f1 e1       	ldi	r31, 0x11	; 17
    11e0:	cf 2e       	mov	r12, r31
    11e2:	d1 2c       	mov	r13, r1
    11e4:	f0 2d       	mov	r31, r0
    11e6:	9e 01       	movw	r18, r28
    11e8:	2b 5f       	subi	r18, 0xFB	; 251
    11ea:	3f 4f       	sbci	r19, 0xFF	; 255
    11ec:	ae 01       	movw	r20, r28
    11ee:	4f 5f       	subi	r20, 0xFF	; 255
    11f0:	5f 4f       	sbci	r21, 0xFF	; 255
    11f2:	be 01       	movw	r22, r28
    11f4:	63 5f       	subi	r22, 0xF3	; 243
    11f6:	7f 4f       	sbci	r23, 0xFF	; 255
    11f8:	ce 01       	movw	r24, r28
    11fa:	09 96       	adiw	r24, 0x09	; 9
    11fc:	31 db       	rcall	.-2462   	; 0x860 <_Z10raund_funcPmS_S_S_mimm>
        raund_func(&b, &c, &d, &a, X[15], 22, T[15], FunF(c, d, a));
    11fe:	49 85       	ldd	r20, Y+9	; 0x09
    1200:	5a 85       	ldd	r21, Y+10	; 0x0a
    1202:	6b 85       	ldd	r22, Y+11	; 0x0b
    1204:	7c 85       	ldd	r23, Y+12	; 0x0c
    1206:	0d 85       	ldd	r16, Y+13	; 0x0d
    1208:	1e 85       	ldd	r17, Y+14	; 0x0e
    120a:	2f 85       	ldd	r18, Y+15	; 0x0f
    120c:	38 89       	ldd	r19, Y+16	; 0x10
    120e:	04 23       	and	r16, r20
    1210:	15 23       	and	r17, r21
    1212:	26 23       	and	r18, r22
    1214:	37 23       	and	r19, r23
    1216:	40 95       	com	r20
    1218:	50 95       	com	r21
    121a:	60 95       	com	r22
    121c:	70 95       	com	r23
    121e:	89 81       	ldd	r24, Y+1	; 0x01
    1220:	9a 81       	ldd	r25, Y+2	; 0x02
    1222:	ab 81       	ldd	r26, Y+3	; 0x03
    1224:	bc 81       	ldd	r27, Y+4	; 0x04
    1226:	84 23       	and	r24, r20
    1228:	95 23       	and	r25, r21
    122a:	a6 23       	and	r26, r22
    122c:	b7 23       	and	r27, r23
    122e:	80 2b       	or	r24, r16
    1230:	91 2b       	or	r25, r17
    1232:	a2 2b       	or	r26, r18
    1234:	b3 2b       	or	r27, r19
    1236:	f2 01       	movw	r30, r4
    1238:	e4 ac       	ldd	r14, Z+60	; 0x3c
    123a:	f5 ac       	ldd	r15, Z+61	; 0x3d
    123c:	06 ad       	ldd	r16, Z+62	; 0x3e
    123e:	17 ad       	ldd	r17, Z+63	; 0x3f
    1240:	bf 93       	push	r27
    1242:	af 93       	push	r26
    1244:	9f 93       	push	r25
    1246:	8f 93       	push	r24
    1248:	0f 2e       	mov	r0, r31
    124a:	f1 e2       	ldi	r31, 0x21	; 33
    124c:	8f 2e       	mov	r8, r31
    124e:	f8 e0       	ldi	r31, 0x08	; 8
    1250:	9f 2e       	mov	r9, r31
    1252:	f4 eb       	ldi	r31, 0xB4	; 180
    1254:	af 2e       	mov	r10, r31
    1256:	f9 e4       	ldi	r31, 0x49	; 73
    1258:	bf 2e       	mov	r11, r31
    125a:	f0 2d       	mov	r31, r0
    125c:	0f 2e       	mov	r0, r31
    125e:	f6 e1       	ldi	r31, 0x16	; 22
    1260:	cf 2e       	mov	r12, r31
    1262:	d1 2c       	mov	r13, r1
    1264:	f0 2d       	mov	r31, r0
    1266:	9e 01       	movw	r18, r28
    1268:	2f 5f       	subi	r18, 0xFF	; 255
    126a:	3f 4f       	sbci	r19, 0xFF	; 255
    126c:	ae 01       	movw	r20, r28
    126e:	43 5f       	subi	r20, 0xF3	; 243
    1270:	5f 4f       	sbci	r21, 0xFF	; 255
    1272:	be 01       	movw	r22, r28
    1274:	67 5f       	subi	r22, 0xF7	; 247
    1276:	7f 4f       	sbci	r23, 0xFF	; 255
    1278:	ce 01       	movw	r24, r28
    127a:	05 96       	adiw	r24, 0x05	; 5
    127c:	f1 da       	rcall	.-2590   	; 0x860 <_Z10raund_funcPmS_S_S_mimm>

        //2
        raund_func(&a, &b, &c, &d, X[1], 5, T[16],   FunG(b, c, d));
    127e:	4d 85       	ldd	r20, Y+13	; 0x0d
    1280:	5e 85       	ldd	r21, Y+14	; 0x0e
    1282:	6f 85       	ldd	r22, Y+15	; 0x0f
    1284:	78 89       	ldd	r23, Y+16	; 0x10
    1286:	0d 81       	ldd	r16, Y+5	; 0x05
    1288:	1e 81       	ldd	r17, Y+6	; 0x06
    128a:	2f 81       	ldd	r18, Y+7	; 0x07
    128c:	38 85       	ldd	r19, Y+8	; 0x08
    128e:	04 23       	and	r16, r20
    1290:	15 23       	and	r17, r21
    1292:	26 23       	and	r18, r22
    1294:	37 23       	and	r19, r23
    1296:	40 95       	com	r20
    1298:	50 95       	com	r21
    129a:	60 95       	com	r22
    129c:	70 95       	com	r23
    129e:	89 85       	ldd	r24, Y+9	; 0x09
    12a0:	9a 85       	ldd	r25, Y+10	; 0x0a
    12a2:	ab 85       	ldd	r26, Y+11	; 0x0b
    12a4:	bc 85       	ldd	r27, Y+12	; 0x0c
    12a6:	84 23       	and	r24, r20
    12a8:	95 23       	and	r25, r21
    12aa:	a6 23       	and	r26, r22
    12ac:	b7 23       	and	r27, r23
    12ae:	80 2b       	or	r24, r16
    12b0:	91 2b       	or	r25, r17
    12b2:	a2 2b       	or	r26, r18
    12b4:	b3 2b       	or	r27, r19
    12b6:	f2 01       	movw	r30, r4
    12b8:	e4 80       	ldd	r14, Z+4	; 0x04
    12ba:	f5 80       	ldd	r15, Z+5	; 0x05
    12bc:	06 81       	ldd	r16, Z+6	; 0x06
    12be:	17 81       	ldd	r17, Z+7	; 0x07
    12c0:	0f b6       	in	r0, 0x3f	; 63
    12c2:	f8 94       	cli
    12c4:	de bf       	out	0x3e, r29	; 62
    12c6:	0f be       	out	0x3f, r0	; 63
    12c8:	cd bf       	out	0x3d, r28	; 61
    12ca:	bf 93       	push	r27
    12cc:	af 93       	push	r26
    12ce:	9f 93       	push	r25
    12d0:	8f 93       	push	r24
    12d2:	0f 2e       	mov	r0, r31
    12d4:	f2 e6       	ldi	r31, 0x62	; 98
    12d6:	8f 2e       	mov	r8, r31
    12d8:	f5 e2       	ldi	r31, 0x25	; 37
    12da:	9f 2e       	mov	r9, r31
    12dc:	fe e1       	ldi	r31, 0x1E	; 30
    12de:	af 2e       	mov	r10, r31
    12e0:	f6 ef       	ldi	r31, 0xF6	; 246
    12e2:	bf 2e       	mov	r11, r31
    12e4:	f0 2d       	mov	r31, r0
    12e6:	0f 2e       	mov	r0, r31
    12e8:	f5 e0       	ldi	r31, 0x05	; 5
    12ea:	cf 2e       	mov	r12, r31
    12ec:	d1 2c       	mov	r13, r1
    12ee:	f0 2d       	mov	r31, r0
    12f0:	9e 01       	movw	r18, r28
    12f2:	23 5f       	subi	r18, 0xF3	; 243
    12f4:	3f 4f       	sbci	r19, 0xFF	; 255
    12f6:	ae 01       	movw	r20, r28
    12f8:	47 5f       	subi	r20, 0xF7	; 247
    12fa:	5f 4f       	sbci	r21, 0xFF	; 255
    12fc:	be 01       	movw	r22, r28
    12fe:	6b 5f       	subi	r22, 0xFB	; 251
    1300:	7f 4f       	sbci	r23, 0xFF	; 255
    1302:	ce 01       	movw	r24, r28
    1304:	01 96       	adiw	r24, 0x01	; 1
    1306:	ac da       	rcall	.-2728   	; 0x860 <_Z10raund_funcPmS_S_S_mimm>
        raund_func(&d, &a, &b, &c, X[6], 9, T[17],   FunG(a, b, c));
    1308:	49 85       	ldd	r20, Y+9	; 0x09
    130a:	5a 85       	ldd	r21, Y+10	; 0x0a
    130c:	6b 85       	ldd	r22, Y+11	; 0x0b
    130e:	7c 85       	ldd	r23, Y+12	; 0x0c
    1310:	09 81       	ldd	r16, Y+1	; 0x01
    1312:	1a 81       	ldd	r17, Y+2	; 0x02
    1314:	2b 81       	ldd	r18, Y+3	; 0x03
    1316:	3c 81       	ldd	r19, Y+4	; 0x04
    1318:	04 23       	and	r16, r20
    131a:	15 23       	and	r17, r21
    131c:	26 23       	and	r18, r22
    131e:	37 23       	and	r19, r23
    1320:	40 95       	com	r20
    1322:	50 95       	com	r21
    1324:	60 95       	com	r22
    1326:	70 95       	com	r23
    1328:	8d 81       	ldd	r24, Y+5	; 0x05
    132a:	9e 81       	ldd	r25, Y+6	; 0x06
    132c:	af 81       	ldd	r26, Y+7	; 0x07
    132e:	b8 85       	ldd	r27, Y+8	; 0x08
    1330:	84 23       	and	r24, r20
    1332:	95 23       	and	r25, r21
    1334:	a6 23       	and	r26, r22
    1336:	b7 23       	and	r27, r23
    1338:	80 2b       	or	r24, r16
    133a:	91 2b       	or	r25, r17
    133c:	a2 2b       	or	r26, r18
    133e:	b3 2b       	or	r27, r19
    1340:	f2 01       	movw	r30, r4
    1342:	e0 8c       	ldd	r14, Z+24	; 0x18
    1344:	f1 8c       	ldd	r15, Z+25	; 0x19
    1346:	02 8d       	ldd	r16, Z+26	; 0x1a
    1348:	13 8d       	ldd	r17, Z+27	; 0x1b
    134a:	bf 93       	push	r27
    134c:	af 93       	push	r26
    134e:	9f 93       	push	r25
    1350:	8f 93       	push	r24
    1352:	0f 2e       	mov	r0, r31
    1354:	f0 e4       	ldi	r31, 0x40	; 64
    1356:	8f 2e       	mov	r8, r31
    1358:	f3 eb       	ldi	r31, 0xB3	; 179
    135a:	9f 2e       	mov	r9, r31
    135c:	a8 2c       	mov	r10, r8
    135e:	f0 ec       	ldi	r31, 0xC0	; 192
    1360:	bf 2e       	mov	r11, r31
    1362:	f0 2d       	mov	r31, r0
    1364:	0f 2e       	mov	r0, r31
    1366:	f9 e0       	ldi	r31, 0x09	; 9
    1368:	cf 2e       	mov	r12, r31
    136a:	d1 2c       	mov	r13, r1
    136c:	f0 2d       	mov	r31, r0
    136e:	9e 01       	movw	r18, r28
    1370:	27 5f       	subi	r18, 0xF7	; 247
    1372:	3f 4f       	sbci	r19, 0xFF	; 255
    1374:	ae 01       	movw	r20, r28
    1376:	4b 5f       	subi	r20, 0xFB	; 251
    1378:	5f 4f       	sbci	r21, 0xFF	; 255
    137a:	be 01       	movw	r22, r28
    137c:	6f 5f       	subi	r22, 0xFF	; 255
    137e:	7f 4f       	sbci	r23, 0xFF	; 255
    1380:	ce 01       	movw	r24, r28
    1382:	0d 96       	adiw	r24, 0x0d	; 13
    1384:	6d da       	rcall	.-2854   	; 0x860 <_Z10raund_funcPmS_S_S_mimm>
        raund_func(&c, &d, &a, &b, X[11], 14, T[18], FunG(d, a, b));
    1386:	4d 81       	ldd	r20, Y+5	; 0x05
    1388:	5e 81       	ldd	r21, Y+6	; 0x06
    138a:	6f 81       	ldd	r22, Y+7	; 0x07
    138c:	78 85       	ldd	r23, Y+8	; 0x08
    138e:	0d 85       	ldd	r16, Y+13	; 0x0d
    1390:	1e 85       	ldd	r17, Y+14	; 0x0e
    1392:	2f 85       	ldd	r18, Y+15	; 0x0f
    1394:	38 89       	ldd	r19, Y+16	; 0x10
    1396:	04 23       	and	r16, r20
    1398:	15 23       	and	r17, r21
    139a:	26 23       	and	r18, r22
    139c:	37 23       	and	r19, r23
    139e:	40 95       	com	r20
    13a0:	50 95       	com	r21
    13a2:	60 95       	com	r22
    13a4:	70 95       	com	r23
    13a6:	89 81       	ldd	r24, Y+1	; 0x01
    13a8:	9a 81       	ldd	r25, Y+2	; 0x02
    13aa:	ab 81       	ldd	r26, Y+3	; 0x03
    13ac:	bc 81       	ldd	r27, Y+4	; 0x04
    13ae:	84 23       	and	r24, r20
    13b0:	95 23       	and	r25, r21
    13b2:	a6 23       	and	r26, r22
    13b4:	b7 23       	and	r27, r23
    13b6:	80 2b       	or	r24, r16
    13b8:	91 2b       	or	r25, r17
    13ba:	a2 2b       	or	r26, r18
    13bc:	b3 2b       	or	r27, r19
    13be:	f2 01       	movw	r30, r4
    13c0:	e4 a4       	ldd	r14, Z+44	; 0x2c
    13c2:	f5 a4       	ldd	r15, Z+45	; 0x2d
    13c4:	06 a5       	ldd	r16, Z+46	; 0x2e
    13c6:	17 a5       	ldd	r17, Z+47	; 0x2f
    13c8:	bf 93       	push	r27
    13ca:	af 93       	push	r26
    13cc:	9f 93       	push	r25
    13ce:	8f 93       	push	r24
    13d0:	0f 2e       	mov	r0, r31
    13d2:	f1 e5       	ldi	r31, 0x51	; 81
    13d4:	8f 2e       	mov	r8, r31
    13d6:	fa e5       	ldi	r31, 0x5A	; 90
    13d8:	9f 2e       	mov	r9, r31
    13da:	fe e5       	ldi	r31, 0x5E	; 94
    13dc:	af 2e       	mov	r10, r31
    13de:	f6 e2       	ldi	r31, 0x26	; 38
    13e0:	bf 2e       	mov	r11, r31
    13e2:	f0 2d       	mov	r31, r0
    13e4:	0f 2e       	mov	r0, r31
    13e6:	fe e0       	ldi	r31, 0x0E	; 14
    13e8:	cf 2e       	mov	r12, r31
    13ea:	d1 2c       	mov	r13, r1
    13ec:	f0 2d       	mov	r31, r0
    13ee:	9e 01       	movw	r18, r28
    13f0:	2b 5f       	subi	r18, 0xFB	; 251
    13f2:	3f 4f       	sbci	r19, 0xFF	; 255
    13f4:	ae 01       	movw	r20, r28
    13f6:	4f 5f       	subi	r20, 0xFF	; 255
    13f8:	5f 4f       	sbci	r21, 0xFF	; 255
    13fa:	be 01       	movw	r22, r28
    13fc:	63 5f       	subi	r22, 0xF3	; 243
    13fe:	7f 4f       	sbci	r23, 0xFF	; 255
    1400:	ce 01       	movw	r24, r28
    1402:	09 96       	adiw	r24, 0x09	; 9
    1404:	2d da       	rcall	.-2982   	; 0x860 <_Z10raund_funcPmS_S_S_mimm>
        raund_func(&b, &c, &d, &a, X[0], 20, T[19],  FunG(c, d, a));
    1406:	49 81       	ldd	r20, Y+1	; 0x01
    1408:	5a 81       	ldd	r21, Y+2	; 0x02
    140a:	6b 81       	ldd	r22, Y+3	; 0x03
    140c:	7c 81       	ldd	r23, Y+4	; 0x04
    140e:	09 85       	ldd	r16, Y+9	; 0x09
    1410:	1a 85       	ldd	r17, Y+10	; 0x0a
    1412:	2b 85       	ldd	r18, Y+11	; 0x0b
    1414:	3c 85       	ldd	r19, Y+12	; 0x0c
    1416:	04 23       	and	r16, r20
    1418:	15 23       	and	r17, r21
    141a:	26 23       	and	r18, r22
    141c:	37 23       	and	r19, r23
    141e:	40 95       	com	r20
    1420:	50 95       	com	r21
    1422:	60 95       	com	r22
    1424:	70 95       	com	r23
    1426:	8d 85       	ldd	r24, Y+13	; 0x0d
    1428:	9e 85       	ldd	r25, Y+14	; 0x0e
    142a:	af 85       	ldd	r26, Y+15	; 0x0f
    142c:	b8 89       	ldd	r27, Y+16	; 0x10
    142e:	84 23       	and	r24, r20
    1430:	95 23       	and	r25, r21
    1432:	a6 23       	and	r26, r22
    1434:	b7 23       	and	r27, r23
    1436:	80 2b       	or	r24, r16
    1438:	91 2b       	or	r25, r17
    143a:	a2 2b       	or	r26, r18
    143c:	b3 2b       	or	r27, r19
    143e:	f2 01       	movw	r30, r4
    1440:	e0 80       	ld	r14, Z
    1442:	f1 80       	ldd	r15, Z+1	; 0x01
    1444:	02 81       	ldd	r16, Z+2	; 0x02
    1446:	13 81       	ldd	r17, Z+3	; 0x03
    1448:	bf 93       	push	r27
    144a:	af 93       	push	r26
    144c:	9f 93       	push	r25
    144e:	8f 93       	push	r24
    1450:	0f 2e       	mov	r0, r31
    1452:	fa ea       	ldi	r31, 0xAA	; 170
    1454:	8f 2e       	mov	r8, r31
    1456:	f7 ec       	ldi	r31, 0xC7	; 199
    1458:	9f 2e       	mov	r9, r31
    145a:	f6 eb       	ldi	r31, 0xB6	; 182
    145c:	af 2e       	mov	r10, r31
    145e:	f9 ee       	ldi	r31, 0xE9	; 233
    1460:	bf 2e       	mov	r11, r31
    1462:	f0 2d       	mov	r31, r0
    1464:	0f 2e       	mov	r0, r31
    1466:	f4 e1       	ldi	r31, 0x14	; 20
    1468:	cf 2e       	mov	r12, r31
    146a:	d1 2c       	mov	r13, r1
    146c:	f0 2d       	mov	r31, r0
    146e:	9e 01       	movw	r18, r28
    1470:	2f 5f       	subi	r18, 0xFF	; 255
    1472:	3f 4f       	sbci	r19, 0xFF	; 255
    1474:	ae 01       	movw	r20, r28
    1476:	43 5f       	subi	r20, 0xF3	; 243
    1478:	5f 4f       	sbci	r21, 0xFF	; 255
    147a:	be 01       	movw	r22, r28
    147c:	67 5f       	subi	r22, 0xF7	; 247
    147e:	7f 4f       	sbci	r23, 0xFF	; 255
    1480:	ce 01       	movw	r24, r28
    1482:	05 96       	adiw	r24, 0x05	; 5
    1484:	ed d9       	rcall	.-3110   	; 0x860 <_Z10raund_funcPmS_S_S_mimm>

        raund_func(&a, &b, &c, &d, X[5], 5, T[20],   FunG(b, c, d));
    1486:	4d 85       	ldd	r20, Y+13	; 0x0d
    1488:	5e 85       	ldd	r21, Y+14	; 0x0e
    148a:	6f 85       	ldd	r22, Y+15	; 0x0f
    148c:	78 89       	ldd	r23, Y+16	; 0x10
    148e:	0d 81       	ldd	r16, Y+5	; 0x05
    1490:	1e 81       	ldd	r17, Y+6	; 0x06
    1492:	2f 81       	ldd	r18, Y+7	; 0x07
    1494:	38 85       	ldd	r19, Y+8	; 0x08
    1496:	04 23       	and	r16, r20
    1498:	15 23       	and	r17, r21
    149a:	26 23       	and	r18, r22
    149c:	37 23       	and	r19, r23
    149e:	40 95       	com	r20
    14a0:	50 95       	com	r21
    14a2:	60 95       	com	r22
    14a4:	70 95       	com	r23
    14a6:	89 85       	ldd	r24, Y+9	; 0x09
    14a8:	9a 85       	ldd	r25, Y+10	; 0x0a
    14aa:	ab 85       	ldd	r26, Y+11	; 0x0b
    14ac:	bc 85       	ldd	r27, Y+12	; 0x0c
    14ae:	84 23       	and	r24, r20
    14b0:	95 23       	and	r25, r21
    14b2:	a6 23       	and	r26, r22
    14b4:	b7 23       	and	r27, r23
    14b6:	80 2b       	or	r24, r16
    14b8:	91 2b       	or	r25, r17
    14ba:	a2 2b       	or	r26, r18
    14bc:	b3 2b       	or	r27, r19
    14be:	f2 01       	movw	r30, r4
    14c0:	e4 88       	ldd	r14, Z+20	; 0x14
    14c2:	f5 88       	ldd	r15, Z+21	; 0x15
    14c4:	06 89       	ldd	r16, Z+22	; 0x16
    14c6:	17 89       	ldd	r17, Z+23	; 0x17
    14c8:	bf 93       	push	r27
    14ca:	af 93       	push	r26
    14cc:	9f 93       	push	r25
    14ce:	8f 93       	push	r24
    14d0:	0f 2e       	mov	r0, r31
    14d2:	fd e5       	ldi	r31, 0x5D	; 93
    14d4:	8f 2e       	mov	r8, r31
    14d6:	f0 e1       	ldi	r31, 0x10	; 16
    14d8:	9f 2e       	mov	r9, r31
    14da:	ff e2       	ldi	r31, 0x2F	; 47
    14dc:	af 2e       	mov	r10, r31
    14de:	f6 ed       	ldi	r31, 0xD6	; 214
    14e0:	bf 2e       	mov	r11, r31
    14e2:	f0 2d       	mov	r31, r0
    14e4:	0f 2e       	mov	r0, r31
    14e6:	f5 e0       	ldi	r31, 0x05	; 5
    14e8:	cf 2e       	mov	r12, r31
    14ea:	d1 2c       	mov	r13, r1
    14ec:	f0 2d       	mov	r31, r0
    14ee:	9e 01       	movw	r18, r28
    14f0:	23 5f       	subi	r18, 0xF3	; 243
    14f2:	3f 4f       	sbci	r19, 0xFF	; 255
    14f4:	ae 01       	movw	r20, r28
    14f6:	47 5f       	subi	r20, 0xF7	; 247
    14f8:	5f 4f       	sbci	r21, 0xFF	; 255
    14fa:	be 01       	movw	r22, r28
    14fc:	6b 5f       	subi	r22, 0xFB	; 251
    14fe:	7f 4f       	sbci	r23, 0xFF	; 255
    1500:	ce 01       	movw	r24, r28
    1502:	01 96       	adiw	r24, 0x01	; 1
    1504:	ad d9       	rcall	.-3238   	; 0x860 <_Z10raund_funcPmS_S_S_mimm>
        raund_func(&d, &a, &b, &c, X[10], 9, T[21],  FunG(a, b, c));
    1506:	49 85       	ldd	r20, Y+9	; 0x09
    1508:	5a 85       	ldd	r21, Y+10	; 0x0a
    150a:	6b 85       	ldd	r22, Y+11	; 0x0b
    150c:	7c 85       	ldd	r23, Y+12	; 0x0c
    150e:	09 81       	ldd	r16, Y+1	; 0x01
    1510:	1a 81       	ldd	r17, Y+2	; 0x02
    1512:	2b 81       	ldd	r18, Y+3	; 0x03
    1514:	3c 81       	ldd	r19, Y+4	; 0x04
    1516:	04 23       	and	r16, r20
    1518:	15 23       	and	r17, r21
    151a:	26 23       	and	r18, r22
    151c:	37 23       	and	r19, r23
    151e:	40 95       	com	r20
    1520:	50 95       	com	r21
    1522:	60 95       	com	r22
    1524:	70 95       	com	r23
    1526:	8d 81       	ldd	r24, Y+5	; 0x05
    1528:	9e 81       	ldd	r25, Y+6	; 0x06
    152a:	af 81       	ldd	r26, Y+7	; 0x07
    152c:	b8 85       	ldd	r27, Y+8	; 0x08
    152e:	84 23       	and	r24, r20
    1530:	95 23       	and	r25, r21
    1532:	a6 23       	and	r26, r22
    1534:	b7 23       	and	r27, r23
    1536:	80 2b       	or	r24, r16
    1538:	91 2b       	or	r25, r17
    153a:	a2 2b       	or	r26, r18
    153c:	b3 2b       	or	r27, r19
    153e:	f2 01       	movw	r30, r4
    1540:	e0 a4       	ldd	r14, Z+40	; 0x28
    1542:	f1 a4       	ldd	r15, Z+41	; 0x29
    1544:	02 a5       	ldd	r16, Z+42	; 0x2a
    1546:	13 a5       	ldd	r17, Z+43	; 0x2b
    1548:	bf 93       	push	r27
    154a:	af 93       	push	r26
    154c:	9f 93       	push	r25
    154e:	8f 93       	push	r24
    1550:	0f 2e       	mov	r0, r31
    1552:	f3 e5       	ldi	r31, 0x53	; 83
    1554:	8f 2e       	mov	r8, r31
    1556:	f4 e1       	ldi	r31, 0x14	; 20
    1558:	9f 2e       	mov	r9, r31
    155a:	f4 e4       	ldi	r31, 0x44	; 68
    155c:	af 2e       	mov	r10, r31
    155e:	f2 e0       	ldi	r31, 0x02	; 2
    1560:	bf 2e       	mov	r11, r31
    1562:	f0 2d       	mov	r31, r0
    1564:	0f 2e       	mov	r0, r31
    1566:	f9 e0       	ldi	r31, 0x09	; 9
    1568:	cf 2e       	mov	r12, r31
    156a:	d1 2c       	mov	r13, r1
    156c:	f0 2d       	mov	r31, r0
    156e:	9e 01       	movw	r18, r28
    1570:	27 5f       	subi	r18, 0xF7	; 247
    1572:	3f 4f       	sbci	r19, 0xFF	; 255
    1574:	ae 01       	movw	r20, r28
    1576:	4b 5f       	subi	r20, 0xFB	; 251
    1578:	5f 4f       	sbci	r21, 0xFF	; 255
    157a:	be 01       	movw	r22, r28
    157c:	6f 5f       	subi	r22, 0xFF	; 255
    157e:	7f 4f       	sbci	r23, 0xFF	; 255
    1580:	ce 01       	movw	r24, r28
    1582:	0d 96       	adiw	r24, 0x0d	; 13
    1584:	6d d9       	rcall	.-3366   	; 0x860 <_Z10raund_funcPmS_S_S_mimm>
        raund_func(&c, &d, &a, &b, X[15], 14, T[22], FunG(d, a, b));
    1586:	4d 81       	ldd	r20, Y+5	; 0x05
    1588:	5e 81       	ldd	r21, Y+6	; 0x06
    158a:	6f 81       	ldd	r22, Y+7	; 0x07
    158c:	78 85       	ldd	r23, Y+8	; 0x08
    158e:	0d 85       	ldd	r16, Y+13	; 0x0d
    1590:	1e 85       	ldd	r17, Y+14	; 0x0e
    1592:	2f 85       	ldd	r18, Y+15	; 0x0f
    1594:	38 89       	ldd	r19, Y+16	; 0x10
    1596:	04 23       	and	r16, r20
    1598:	15 23       	and	r17, r21
    159a:	26 23       	and	r18, r22
    159c:	37 23       	and	r19, r23
    159e:	40 95       	com	r20
    15a0:	50 95       	com	r21
    15a2:	60 95       	com	r22
    15a4:	70 95       	com	r23
    15a6:	89 81       	ldd	r24, Y+1	; 0x01
    15a8:	9a 81       	ldd	r25, Y+2	; 0x02
    15aa:	ab 81       	ldd	r26, Y+3	; 0x03
    15ac:	bc 81       	ldd	r27, Y+4	; 0x04
    15ae:	84 23       	and	r24, r20
    15b0:	95 23       	and	r25, r21
    15b2:	a6 23       	and	r26, r22
    15b4:	b7 23       	and	r27, r23
    15b6:	80 2b       	or	r24, r16
    15b8:	91 2b       	or	r25, r17
    15ba:	a2 2b       	or	r26, r18
    15bc:	b3 2b       	or	r27, r19
    15be:	f2 01       	movw	r30, r4
    15c0:	e4 ac       	ldd	r14, Z+60	; 0x3c
    15c2:	f5 ac       	ldd	r15, Z+61	; 0x3d
    15c4:	06 ad       	ldd	r16, Z+62	; 0x3e
    15c6:	17 ad       	ldd	r17, Z+63	; 0x3f
    15c8:	bf 93       	push	r27
    15ca:	af 93       	push	r26
    15cc:	9f 93       	push	r25
    15ce:	8f 93       	push	r24
    15d0:	0f 2e       	mov	r0, r31
    15d2:	f1 e8       	ldi	r31, 0x81	; 129
    15d4:	8f 2e       	mov	r8, r31
    15d6:	f6 ee       	ldi	r31, 0xE6	; 230
    15d8:	9f 2e       	mov	r9, r31
    15da:	f1 ea       	ldi	r31, 0xA1	; 161
    15dc:	af 2e       	mov	r10, r31
    15de:	f8 ed       	ldi	r31, 0xD8	; 216
    15e0:	bf 2e       	mov	r11, r31
    15e2:	f0 2d       	mov	r31, r0
    15e4:	0f 2e       	mov	r0, r31
    15e6:	fe e0       	ldi	r31, 0x0E	; 14
    15e8:	cf 2e       	mov	r12, r31
    15ea:	d1 2c       	mov	r13, r1
    15ec:	f0 2d       	mov	r31, r0
    15ee:	9e 01       	movw	r18, r28
    15f0:	2b 5f       	subi	r18, 0xFB	; 251
    15f2:	3f 4f       	sbci	r19, 0xFF	; 255
    15f4:	ae 01       	movw	r20, r28
    15f6:	4f 5f       	subi	r20, 0xFF	; 255
    15f8:	5f 4f       	sbci	r21, 0xFF	; 255
    15fa:	be 01       	movw	r22, r28
    15fc:	63 5f       	subi	r22, 0xF3	; 243
    15fe:	7f 4f       	sbci	r23, 0xFF	; 255
    1600:	ce 01       	movw	r24, r28
    1602:	09 96       	adiw	r24, 0x09	; 9
    1604:	2d d9       	rcall	.-3494   	; 0x860 <_Z10raund_funcPmS_S_S_mimm>
        raund_func(&b, &c, &d, &a, X[4], 20, T[23],  FunG(c, d, a));
    1606:	49 81       	ldd	r20, Y+1	; 0x01
    1608:	5a 81       	ldd	r21, Y+2	; 0x02
    160a:	6b 81       	ldd	r22, Y+3	; 0x03
    160c:	7c 81       	ldd	r23, Y+4	; 0x04
    160e:	09 85       	ldd	r16, Y+9	; 0x09
    1610:	1a 85       	ldd	r17, Y+10	; 0x0a
    1612:	2b 85       	ldd	r18, Y+11	; 0x0b
    1614:	3c 85       	ldd	r19, Y+12	; 0x0c
    1616:	04 23       	and	r16, r20
    1618:	15 23       	and	r17, r21
    161a:	26 23       	and	r18, r22
    161c:	37 23       	and	r19, r23
    161e:	40 95       	com	r20
    1620:	50 95       	com	r21
    1622:	60 95       	com	r22
    1624:	70 95       	com	r23
    1626:	8d 85       	ldd	r24, Y+13	; 0x0d
    1628:	9e 85       	ldd	r25, Y+14	; 0x0e
    162a:	af 85       	ldd	r26, Y+15	; 0x0f
    162c:	b8 89       	ldd	r27, Y+16	; 0x10
    162e:	84 23       	and	r24, r20
    1630:	95 23       	and	r25, r21
    1632:	a6 23       	and	r26, r22
    1634:	b7 23       	and	r27, r23
    1636:	80 2b       	or	r24, r16
    1638:	91 2b       	or	r25, r17
    163a:	a2 2b       	or	r26, r18
    163c:	b3 2b       	or	r27, r19
    163e:	f2 01       	movw	r30, r4
    1640:	e0 88       	ldd	r14, Z+16	; 0x10
    1642:	f1 88       	ldd	r15, Z+17	; 0x11
    1644:	02 89       	ldd	r16, Z+18	; 0x12
    1646:	13 89       	ldd	r17, Z+19	; 0x13
    1648:	bf 93       	push	r27
    164a:	af 93       	push	r26
    164c:	9f 93       	push	r25
    164e:	8f 93       	push	r24
    1650:	0f 2e       	mov	r0, r31
    1652:	f8 ec       	ldi	r31, 0xC8	; 200
    1654:	8f 2e       	mov	r8, r31
    1656:	fb ef       	ldi	r31, 0xFB	; 251
    1658:	9f 2e       	mov	r9, r31
    165a:	f3 ed       	ldi	r31, 0xD3	; 211
    165c:	af 2e       	mov	r10, r31
    165e:	f7 ee       	ldi	r31, 0xE7	; 231
    1660:	bf 2e       	mov	r11, r31
    1662:	f0 2d       	mov	r31, r0
    1664:	0f 2e       	mov	r0, r31
    1666:	f4 e1       	ldi	r31, 0x14	; 20
    1668:	cf 2e       	mov	r12, r31
    166a:	d1 2c       	mov	r13, r1
    166c:	f0 2d       	mov	r31, r0
    166e:	9e 01       	movw	r18, r28
    1670:	2f 5f       	subi	r18, 0xFF	; 255
    1672:	3f 4f       	sbci	r19, 0xFF	; 255
    1674:	ae 01       	movw	r20, r28
    1676:	43 5f       	subi	r20, 0xF3	; 243
    1678:	5f 4f       	sbci	r21, 0xFF	; 255
    167a:	be 01       	movw	r22, r28
    167c:	67 5f       	subi	r22, 0xF7	; 247
    167e:	7f 4f       	sbci	r23, 0xFF	; 255
    1680:	ce 01       	movw	r24, r28
    1682:	05 96       	adiw	r24, 0x05	; 5
    1684:	ed d8       	rcall	.-3622   	; 0x860 <_Z10raund_funcPmS_S_S_mimm>

        raund_func(&a, &b, &c, &d, X[9], 5, T[24],   FunG(b, c, d));
    1686:	4d 85       	ldd	r20, Y+13	; 0x0d
    1688:	5e 85       	ldd	r21, Y+14	; 0x0e
    168a:	6f 85       	ldd	r22, Y+15	; 0x0f
    168c:	78 89       	ldd	r23, Y+16	; 0x10
    168e:	0d 81       	ldd	r16, Y+5	; 0x05
    1690:	1e 81       	ldd	r17, Y+6	; 0x06
    1692:	2f 81       	ldd	r18, Y+7	; 0x07
    1694:	38 85       	ldd	r19, Y+8	; 0x08
    1696:	04 23       	and	r16, r20
    1698:	15 23       	and	r17, r21
    169a:	26 23       	and	r18, r22
    169c:	37 23       	and	r19, r23
    169e:	40 95       	com	r20
    16a0:	50 95       	com	r21
    16a2:	60 95       	com	r22
    16a4:	70 95       	com	r23
    16a6:	89 85       	ldd	r24, Y+9	; 0x09
    16a8:	9a 85       	ldd	r25, Y+10	; 0x0a
    16aa:	ab 85       	ldd	r26, Y+11	; 0x0b
    16ac:	bc 85       	ldd	r27, Y+12	; 0x0c
    16ae:	84 23       	and	r24, r20
    16b0:	95 23       	and	r25, r21
    16b2:	a6 23       	and	r26, r22
    16b4:	b7 23       	and	r27, r23
    16b6:	80 2b       	or	r24, r16
    16b8:	91 2b       	or	r25, r17
    16ba:	a2 2b       	or	r26, r18
    16bc:	b3 2b       	or	r27, r19
    16be:	f2 01       	movw	r30, r4
    16c0:	e4 a0       	ldd	r14, Z+36	; 0x24
    16c2:	f5 a0       	ldd	r15, Z+37	; 0x25
    16c4:	06 a1       	ldd	r16, Z+38	; 0x26
    16c6:	17 a1       	ldd	r17, Z+39	; 0x27
    16c8:	0f b6       	in	r0, 0x3f	; 63
    16ca:	f8 94       	cli
    16cc:	de bf       	out	0x3e, r29	; 62
    16ce:	0f be       	out	0x3f, r0	; 63
    16d0:	cd bf       	out	0x3d, r28	; 61
    16d2:	bf 93       	push	r27
    16d4:	af 93       	push	r26
    16d6:	9f 93       	push	r25
    16d8:	8f 93       	push	r24
    16da:	0f 2e       	mov	r0, r31
    16dc:	f6 ee       	ldi	r31, 0xE6	; 230
    16de:	8f 2e       	mov	r8, r31
    16e0:	fd ec       	ldi	r31, 0xCD	; 205
    16e2:	9f 2e       	mov	r9, r31
    16e4:	f1 ee       	ldi	r31, 0xE1	; 225
    16e6:	af 2e       	mov	r10, r31
    16e8:	f1 e2       	ldi	r31, 0x21	; 33
    16ea:	bf 2e       	mov	r11, r31
    16ec:	f0 2d       	mov	r31, r0
    16ee:	0f 2e       	mov	r0, r31
    16f0:	f5 e0       	ldi	r31, 0x05	; 5
    16f2:	cf 2e       	mov	r12, r31
    16f4:	d1 2c       	mov	r13, r1
    16f6:	f0 2d       	mov	r31, r0
    16f8:	9e 01       	movw	r18, r28
    16fa:	23 5f       	subi	r18, 0xF3	; 243
    16fc:	3f 4f       	sbci	r19, 0xFF	; 255
    16fe:	ae 01       	movw	r20, r28
    1700:	47 5f       	subi	r20, 0xF7	; 247
    1702:	5f 4f       	sbci	r21, 0xFF	; 255
    1704:	be 01       	movw	r22, r28
    1706:	6b 5f       	subi	r22, 0xFB	; 251
    1708:	7f 4f       	sbci	r23, 0xFF	; 255
    170a:	ce 01       	movw	r24, r28
    170c:	01 96       	adiw	r24, 0x01	; 1
    170e:	a8 d8       	rcall	.-3760   	; 0x860 <_Z10raund_funcPmS_S_S_mimm>
        raund_func(&d, &a, &b, &c, X[14], 9, T[25],  FunG(a, b, c));
    1710:	49 85       	ldd	r20, Y+9	; 0x09
    1712:	5a 85       	ldd	r21, Y+10	; 0x0a
    1714:	6b 85       	ldd	r22, Y+11	; 0x0b
    1716:	7c 85       	ldd	r23, Y+12	; 0x0c
    1718:	09 81       	ldd	r16, Y+1	; 0x01
    171a:	1a 81       	ldd	r17, Y+2	; 0x02
    171c:	2b 81       	ldd	r18, Y+3	; 0x03
    171e:	3c 81       	ldd	r19, Y+4	; 0x04
    1720:	04 23       	and	r16, r20
    1722:	15 23       	and	r17, r21
    1724:	26 23       	and	r18, r22
    1726:	37 23       	and	r19, r23
    1728:	40 95       	com	r20
    172a:	50 95       	com	r21
    172c:	60 95       	com	r22
    172e:	70 95       	com	r23
    1730:	8d 81       	ldd	r24, Y+5	; 0x05
    1732:	9e 81       	ldd	r25, Y+6	; 0x06
    1734:	af 81       	ldd	r26, Y+7	; 0x07
    1736:	b8 85       	ldd	r27, Y+8	; 0x08
    1738:	84 23       	and	r24, r20
    173a:	95 23       	and	r25, r21
    173c:	a6 23       	and	r26, r22
    173e:	b7 23       	and	r27, r23
    1740:	80 2b       	or	r24, r16
    1742:	91 2b       	or	r25, r17
    1744:	a2 2b       	or	r26, r18
    1746:	b3 2b       	or	r27, r19
    1748:	f2 01       	movw	r30, r4
    174a:	e0 ac       	ldd	r14, Z+56	; 0x38
    174c:	f1 ac       	ldd	r15, Z+57	; 0x39
    174e:	02 ad       	ldd	r16, Z+58	; 0x3a
    1750:	13 ad       	ldd	r17, Z+59	; 0x3b
    1752:	bf 93       	push	r27
    1754:	af 93       	push	r26
    1756:	9f 93       	push	r25
    1758:	8f 93       	push	r24
    175a:	0f 2e       	mov	r0, r31
    175c:	f6 ed       	ldi	r31, 0xD6	; 214
    175e:	8f 2e       	mov	r8, r31
    1760:	f7 e0       	ldi	r31, 0x07	; 7
    1762:	9f 2e       	mov	r9, r31
    1764:	f7 e3       	ldi	r31, 0x37	; 55
    1766:	af 2e       	mov	r10, r31
    1768:	f3 ec       	ldi	r31, 0xC3	; 195
    176a:	bf 2e       	mov	r11, r31
    176c:	f0 2d       	mov	r31, r0
    176e:	0f 2e       	mov	r0, r31
    1770:	f9 e0       	ldi	r31, 0x09	; 9
    1772:	cf 2e       	mov	r12, r31
    1774:	d1 2c       	mov	r13, r1
    1776:	f0 2d       	mov	r31, r0
    1778:	9e 01       	movw	r18, r28
    177a:	27 5f       	subi	r18, 0xF7	; 247
    177c:	3f 4f       	sbci	r19, 0xFF	; 255
    177e:	ae 01       	movw	r20, r28
    1780:	4b 5f       	subi	r20, 0xFB	; 251
    1782:	5f 4f       	sbci	r21, 0xFF	; 255
    1784:	be 01       	movw	r22, r28
    1786:	6f 5f       	subi	r22, 0xFF	; 255
    1788:	7f 4f       	sbci	r23, 0xFF	; 255
    178a:	ce 01       	movw	r24, r28
    178c:	0d 96       	adiw	r24, 0x0d	; 13
    178e:	68 d8       	rcall	.-3888   	; 0x860 <_Z10raund_funcPmS_S_S_mimm>
        raund_func(&c, &d, &a, &b, X[3], 14, T[26],  FunG(d, a, b));
    1790:	4d 81       	ldd	r20, Y+5	; 0x05
    1792:	5e 81       	ldd	r21, Y+6	; 0x06
    1794:	6f 81       	ldd	r22, Y+7	; 0x07
    1796:	78 85       	ldd	r23, Y+8	; 0x08
    1798:	0d 85       	ldd	r16, Y+13	; 0x0d
    179a:	1e 85       	ldd	r17, Y+14	; 0x0e
    179c:	2f 85       	ldd	r18, Y+15	; 0x0f
    179e:	38 89       	ldd	r19, Y+16	; 0x10
    17a0:	04 23       	and	r16, r20
    17a2:	15 23       	and	r17, r21
    17a4:	26 23       	and	r18, r22
    17a6:	37 23       	and	r19, r23
    17a8:	40 95       	com	r20
    17aa:	50 95       	com	r21
    17ac:	60 95       	com	r22
    17ae:	70 95       	com	r23
    17b0:	89 81       	ldd	r24, Y+1	; 0x01
    17b2:	9a 81       	ldd	r25, Y+2	; 0x02
    17b4:	ab 81       	ldd	r26, Y+3	; 0x03
    17b6:	bc 81       	ldd	r27, Y+4	; 0x04
    17b8:	84 23       	and	r24, r20
    17ba:	95 23       	and	r25, r21
    17bc:	a6 23       	and	r26, r22
    17be:	b7 23       	and	r27, r23
    17c0:	80 2b       	or	r24, r16
    17c2:	91 2b       	or	r25, r17
    17c4:	a2 2b       	or	r26, r18
    17c6:	b3 2b       	or	r27, r19
    17c8:	f2 01       	movw	r30, r4
    17ca:	e4 84       	ldd	r14, Z+12	; 0x0c
    17cc:	f5 84       	ldd	r15, Z+13	; 0x0d
    17ce:	06 85       	ldd	r16, Z+14	; 0x0e
    17d0:	17 85       	ldd	r17, Z+15	; 0x0f
    17d2:	bf 93       	push	r27
    17d4:	af 93       	push	r26
    17d6:	9f 93       	push	r25
    17d8:	8f 93       	push	r24
    17da:	0f 2e       	mov	r0, r31
    17dc:	f7 e8       	ldi	r31, 0x87	; 135
    17de:	8f 2e       	mov	r8, r31
    17e0:	fd e0       	ldi	r31, 0x0D	; 13
    17e2:	9f 2e       	mov	r9, r31
    17e4:	f5 ed       	ldi	r31, 0xD5	; 213
    17e6:	af 2e       	mov	r10, r31
    17e8:	f4 ef       	ldi	r31, 0xF4	; 244
    17ea:	bf 2e       	mov	r11, r31
    17ec:	f0 2d       	mov	r31, r0
    17ee:	0f 2e       	mov	r0, r31
    17f0:	fe e0       	ldi	r31, 0x0E	; 14
    17f2:	cf 2e       	mov	r12, r31
    17f4:	d1 2c       	mov	r13, r1
    17f6:	f0 2d       	mov	r31, r0
    17f8:	9e 01       	movw	r18, r28
    17fa:	2b 5f       	subi	r18, 0xFB	; 251
    17fc:	3f 4f       	sbci	r19, 0xFF	; 255
    17fe:	ae 01       	movw	r20, r28
    1800:	4f 5f       	subi	r20, 0xFF	; 255
    1802:	5f 4f       	sbci	r21, 0xFF	; 255
    1804:	be 01       	movw	r22, r28
    1806:	63 5f       	subi	r22, 0xF3	; 243
    1808:	7f 4f       	sbci	r23, 0xFF	; 255
    180a:	ce 01       	movw	r24, r28
    180c:	09 96       	adiw	r24, 0x09	; 9
    180e:	28 d8       	rcall	.-4016   	; 0x860 <_Z10raund_funcPmS_S_S_mimm>
        raund_func(&b, &c, &d, &a, X[8], 20, T[27],  FunG(c, d, a));
    1810:	49 81       	ldd	r20, Y+1	; 0x01
    1812:	5a 81       	ldd	r21, Y+2	; 0x02
    1814:	6b 81       	ldd	r22, Y+3	; 0x03
    1816:	7c 81       	ldd	r23, Y+4	; 0x04
    1818:	09 85       	ldd	r16, Y+9	; 0x09
    181a:	1a 85       	ldd	r17, Y+10	; 0x0a
    181c:	2b 85       	ldd	r18, Y+11	; 0x0b
    181e:	3c 85       	ldd	r19, Y+12	; 0x0c
    1820:	04 23       	and	r16, r20
    1822:	15 23       	and	r17, r21
    1824:	26 23       	and	r18, r22
    1826:	37 23       	and	r19, r23
    1828:	40 95       	com	r20
    182a:	50 95       	com	r21
    182c:	60 95       	com	r22
    182e:	70 95       	com	r23
    1830:	8d 85       	ldd	r24, Y+13	; 0x0d
    1832:	9e 85       	ldd	r25, Y+14	; 0x0e
    1834:	af 85       	ldd	r26, Y+15	; 0x0f
    1836:	b8 89       	ldd	r27, Y+16	; 0x10
    1838:	84 23       	and	r24, r20
    183a:	95 23       	and	r25, r21
    183c:	a6 23       	and	r26, r22
    183e:	b7 23       	and	r27, r23
    1840:	80 2b       	or	r24, r16
    1842:	91 2b       	or	r25, r17
    1844:	a2 2b       	or	r26, r18
    1846:	b3 2b       	or	r27, r19
    1848:	f2 01       	movw	r30, r4
    184a:	e0 a0       	ldd	r14, Z+32	; 0x20
    184c:	f1 a0       	ldd	r15, Z+33	; 0x21
    184e:	02 a1       	ldd	r16, Z+34	; 0x22
    1850:	13 a1       	ldd	r17, Z+35	; 0x23
    1852:	bf 93       	push	r27
    1854:	af 93       	push	r26
    1856:	9f 93       	push	r25
    1858:	8f 93       	push	r24
    185a:	0f 2e       	mov	r0, r31
    185c:	fd ee       	ldi	r31, 0xED	; 237
    185e:	8f 2e       	mov	r8, r31
    1860:	f4 e1       	ldi	r31, 0x14	; 20
    1862:	9f 2e       	mov	r9, r31
    1864:	fa e5       	ldi	r31, 0x5A	; 90
    1866:	af 2e       	mov	r10, r31
    1868:	f5 e4       	ldi	r31, 0x45	; 69
    186a:	bf 2e       	mov	r11, r31
    186c:	f0 2d       	mov	r31, r0
    186e:	0f 2e       	mov	r0, r31
    1870:	f4 e1       	ldi	r31, 0x14	; 20
    1872:	cf 2e       	mov	r12, r31
    1874:	d1 2c       	mov	r13, r1
    1876:	f0 2d       	mov	r31, r0
    1878:	9e 01       	movw	r18, r28
    187a:	2f 5f       	subi	r18, 0xFF	; 255
    187c:	3f 4f       	sbci	r19, 0xFF	; 255
    187e:	ae 01       	movw	r20, r28
    1880:	43 5f       	subi	r20, 0xF3	; 243
    1882:	5f 4f       	sbci	r21, 0xFF	; 255
    1884:	be 01       	movw	r22, r28
    1886:	67 5f       	subi	r22, 0xF7	; 247
    1888:	7f 4f       	sbci	r23, 0xFF	; 255
    188a:	ce 01       	movw	r24, r28
    188c:	05 96       	adiw	r24, 0x05	; 5
    188e:	0e 94 30 04 	call	0x860	; 0x860 <_Z10raund_funcPmS_S_S_mimm>

        raund_func(&a, &b, &c, &d, X[13], 5, T[28],  FunG(b, c, d));
    1892:	4d 85       	ldd	r20, Y+13	; 0x0d
    1894:	5e 85       	ldd	r21, Y+14	; 0x0e
    1896:	6f 85       	ldd	r22, Y+15	; 0x0f
    1898:	78 89       	ldd	r23, Y+16	; 0x10
    189a:	0d 81       	ldd	r16, Y+5	; 0x05
    189c:	1e 81       	ldd	r17, Y+6	; 0x06
    189e:	2f 81       	ldd	r18, Y+7	; 0x07
    18a0:	38 85       	ldd	r19, Y+8	; 0x08
    18a2:	04 23       	and	r16, r20
    18a4:	15 23       	and	r17, r21
    18a6:	26 23       	and	r18, r22
    18a8:	37 23       	and	r19, r23
    18aa:	40 95       	com	r20
    18ac:	50 95       	com	r21
    18ae:	60 95       	com	r22
    18b0:	70 95       	com	r23
    18b2:	89 85       	ldd	r24, Y+9	; 0x09
    18b4:	9a 85       	ldd	r25, Y+10	; 0x0a
    18b6:	ab 85       	ldd	r26, Y+11	; 0x0b
    18b8:	bc 85       	ldd	r27, Y+12	; 0x0c
    18ba:	84 23       	and	r24, r20
    18bc:	95 23       	and	r25, r21
    18be:	a6 23       	and	r26, r22
    18c0:	b7 23       	and	r27, r23
    18c2:	80 2b       	or	r24, r16
    18c4:	91 2b       	or	r25, r17
    18c6:	a2 2b       	or	r26, r18
    18c8:	b3 2b       	or	r27, r19
    18ca:	f2 01       	movw	r30, r4
    18cc:	e4 a8       	ldd	r14, Z+52	; 0x34
    18ce:	f5 a8       	ldd	r15, Z+53	; 0x35
    18d0:	06 a9       	ldd	r16, Z+54	; 0x36
    18d2:	17 a9       	ldd	r17, Z+55	; 0x37
    18d4:	bf 93       	push	r27
    18d6:	af 93       	push	r26
    18d8:	9f 93       	push	r25
    18da:	8f 93       	push	r24
    18dc:	0f 2e       	mov	r0, r31
    18de:	f5 e0       	ldi	r31, 0x05	; 5
    18e0:	8f 2e       	mov	r8, r31
    18e2:	f9 ee       	ldi	r31, 0xE9	; 233
    18e4:	9f 2e       	mov	r9, r31
    18e6:	f3 ee       	ldi	r31, 0xE3	; 227
    18e8:	af 2e       	mov	r10, r31
    18ea:	f9 ea       	ldi	r31, 0xA9	; 169
    18ec:	bf 2e       	mov	r11, r31
    18ee:	f0 2d       	mov	r31, r0
    18f0:	0f 2e       	mov	r0, r31
    18f2:	f5 e0       	ldi	r31, 0x05	; 5
    18f4:	cf 2e       	mov	r12, r31
    18f6:	d1 2c       	mov	r13, r1
    18f8:	f0 2d       	mov	r31, r0
    18fa:	9e 01       	movw	r18, r28
    18fc:	23 5f       	subi	r18, 0xF3	; 243
    18fe:	3f 4f       	sbci	r19, 0xFF	; 255
    1900:	ae 01       	movw	r20, r28
    1902:	47 5f       	subi	r20, 0xF7	; 247
    1904:	5f 4f       	sbci	r21, 0xFF	; 255
    1906:	be 01       	movw	r22, r28
    1908:	6b 5f       	subi	r22, 0xFB	; 251
    190a:	7f 4f       	sbci	r23, 0xFF	; 255
    190c:	ce 01       	movw	r24, r28
    190e:	01 96       	adiw	r24, 0x01	; 1
    1910:	0e 94 30 04 	call	0x860	; 0x860 <_Z10raund_funcPmS_S_S_mimm>
        raund_func(&d, &a, &b, &c, X[2], 9, T[29],   FunG(a, b, c));
    1914:	49 85       	ldd	r20, Y+9	; 0x09
    1916:	5a 85       	ldd	r21, Y+10	; 0x0a
    1918:	6b 85       	ldd	r22, Y+11	; 0x0b
    191a:	7c 85       	ldd	r23, Y+12	; 0x0c
    191c:	09 81       	ldd	r16, Y+1	; 0x01
    191e:	1a 81       	ldd	r17, Y+2	; 0x02
    1920:	2b 81       	ldd	r18, Y+3	; 0x03
    1922:	3c 81       	ldd	r19, Y+4	; 0x04
    1924:	04 23       	and	r16, r20
    1926:	15 23       	and	r17, r21
    1928:	26 23       	and	r18, r22
    192a:	37 23       	and	r19, r23
    192c:	40 95       	com	r20
    192e:	50 95       	com	r21
    1930:	60 95       	com	r22
    1932:	70 95       	com	r23
    1934:	8d 81       	ldd	r24, Y+5	; 0x05
    1936:	9e 81       	ldd	r25, Y+6	; 0x06
    1938:	af 81       	ldd	r26, Y+7	; 0x07
    193a:	b8 85       	ldd	r27, Y+8	; 0x08
    193c:	84 23       	and	r24, r20
    193e:	95 23       	and	r25, r21
    1940:	a6 23       	and	r26, r22
    1942:	b7 23       	and	r27, r23
    1944:	80 2b       	or	r24, r16
    1946:	91 2b       	or	r25, r17
    1948:	a2 2b       	or	r26, r18
    194a:	b3 2b       	or	r27, r19
    194c:	f2 01       	movw	r30, r4
    194e:	e0 84       	ldd	r14, Z+8	; 0x08
    1950:	f1 84       	ldd	r15, Z+9	; 0x09
    1952:	02 85       	ldd	r16, Z+10	; 0x0a
    1954:	13 85       	ldd	r17, Z+11	; 0x0b
    1956:	bf 93       	push	r27
    1958:	af 93       	push	r26
    195a:	9f 93       	push	r25
    195c:	8f 93       	push	r24
    195e:	0f 2e       	mov	r0, r31
    1960:	f8 ef       	ldi	r31, 0xF8	; 248
    1962:	8f 2e       	mov	r8, r31
    1964:	f3 ea       	ldi	r31, 0xA3	; 163
    1966:	9f 2e       	mov	r9, r31
    1968:	ff ee       	ldi	r31, 0xEF	; 239
    196a:	af 2e       	mov	r10, r31
    196c:	fc ef       	ldi	r31, 0xFC	; 252
    196e:	bf 2e       	mov	r11, r31
    1970:	f0 2d       	mov	r31, r0
    1972:	0f 2e       	mov	r0, r31
    1974:	f9 e0       	ldi	r31, 0x09	; 9
    1976:	cf 2e       	mov	r12, r31
    1978:	d1 2c       	mov	r13, r1
    197a:	f0 2d       	mov	r31, r0
    197c:	9e 01       	movw	r18, r28
    197e:	27 5f       	subi	r18, 0xF7	; 247
    1980:	3f 4f       	sbci	r19, 0xFF	; 255
    1982:	ae 01       	movw	r20, r28
    1984:	4b 5f       	subi	r20, 0xFB	; 251
    1986:	5f 4f       	sbci	r21, 0xFF	; 255
    1988:	be 01       	movw	r22, r28
    198a:	6f 5f       	subi	r22, 0xFF	; 255
    198c:	7f 4f       	sbci	r23, 0xFF	; 255
    198e:	ce 01       	movw	r24, r28
    1990:	0d 96       	adiw	r24, 0x0d	; 13
    1992:	0e 94 30 04 	call	0x860	; 0x860 <_Z10raund_funcPmS_S_S_mimm>
        raund_func(&c, &d, &a, &b, X[7], 14, T[30],  FunG(d, a, b));
    1996:	4d 81       	ldd	r20, Y+5	; 0x05
    1998:	5e 81       	ldd	r21, Y+6	; 0x06
    199a:	6f 81       	ldd	r22, Y+7	; 0x07
    199c:	78 85       	ldd	r23, Y+8	; 0x08
    199e:	0d 85       	ldd	r16, Y+13	; 0x0d
    19a0:	1e 85       	ldd	r17, Y+14	; 0x0e
    19a2:	2f 85       	ldd	r18, Y+15	; 0x0f
    19a4:	38 89       	ldd	r19, Y+16	; 0x10
    19a6:	04 23       	and	r16, r20
    19a8:	15 23       	and	r17, r21
    19aa:	26 23       	and	r18, r22
    19ac:	37 23       	and	r19, r23
    19ae:	40 95       	com	r20
    19b0:	50 95       	com	r21
    19b2:	60 95       	com	r22
    19b4:	70 95       	com	r23
    19b6:	89 81       	ldd	r24, Y+1	; 0x01
    19b8:	9a 81       	ldd	r25, Y+2	; 0x02
    19ba:	ab 81       	ldd	r26, Y+3	; 0x03
    19bc:	bc 81       	ldd	r27, Y+4	; 0x04
    19be:	84 23       	and	r24, r20
    19c0:	95 23       	and	r25, r21
    19c2:	a6 23       	and	r26, r22
    19c4:	b7 23       	and	r27, r23
    19c6:	80 2b       	or	r24, r16
    19c8:	91 2b       	or	r25, r17
    19ca:	a2 2b       	or	r26, r18
    19cc:	b3 2b       	or	r27, r19
    19ce:	f2 01       	movw	r30, r4
    19d0:	e4 8c       	ldd	r14, Z+28	; 0x1c
    19d2:	f5 8c       	ldd	r15, Z+29	; 0x1d
    19d4:	06 8d       	ldd	r16, Z+30	; 0x1e
    19d6:	17 8d       	ldd	r17, Z+31	; 0x1f
    19d8:	bf 93       	push	r27
    19da:	af 93       	push	r26
    19dc:	9f 93       	push	r25
    19de:	8f 93       	push	r24
    19e0:	0f 2e       	mov	r0, r31
    19e2:	f9 ed       	ldi	r31, 0xD9	; 217
    19e4:	8f 2e       	mov	r8, r31
    19e6:	f2 e0       	ldi	r31, 0x02	; 2
    19e8:	9f 2e       	mov	r9, r31
    19ea:	ff e6       	ldi	r31, 0x6F	; 111
    19ec:	af 2e       	mov	r10, r31
    19ee:	f7 e6       	ldi	r31, 0x67	; 103
    19f0:	bf 2e       	mov	r11, r31
    19f2:	f0 2d       	mov	r31, r0
    19f4:	0f 2e       	mov	r0, r31
    19f6:	fe e0       	ldi	r31, 0x0E	; 14
    19f8:	cf 2e       	mov	r12, r31
    19fa:	d1 2c       	mov	r13, r1
    19fc:	f0 2d       	mov	r31, r0
    19fe:	9e 01       	movw	r18, r28
    1a00:	2b 5f       	subi	r18, 0xFB	; 251
    1a02:	3f 4f       	sbci	r19, 0xFF	; 255
    1a04:	ae 01       	movw	r20, r28
    1a06:	4f 5f       	subi	r20, 0xFF	; 255
    1a08:	5f 4f       	sbci	r21, 0xFF	; 255
    1a0a:	be 01       	movw	r22, r28
    1a0c:	63 5f       	subi	r22, 0xF3	; 243
    1a0e:	7f 4f       	sbci	r23, 0xFF	; 255
    1a10:	ce 01       	movw	r24, r28
    1a12:	09 96       	adiw	r24, 0x09	; 9
    1a14:	0e 94 30 04 	call	0x860	; 0x860 <_Z10raund_funcPmS_S_S_mimm>
        raund_func(&b, &c, &d, &a, X[12], 20, T[31], FunG(c, d, a));
    1a18:	49 81       	ldd	r20, Y+1	; 0x01
    1a1a:	5a 81       	ldd	r21, Y+2	; 0x02
    1a1c:	6b 81       	ldd	r22, Y+3	; 0x03
    1a1e:	7c 81       	ldd	r23, Y+4	; 0x04
    1a20:	09 85       	ldd	r16, Y+9	; 0x09
    1a22:	1a 85       	ldd	r17, Y+10	; 0x0a
    1a24:	2b 85       	ldd	r18, Y+11	; 0x0b
    1a26:	3c 85       	ldd	r19, Y+12	; 0x0c
    1a28:	04 23       	and	r16, r20
    1a2a:	15 23       	and	r17, r21
    1a2c:	26 23       	and	r18, r22
    1a2e:	37 23       	and	r19, r23
    1a30:	40 95       	com	r20
    1a32:	50 95       	com	r21
    1a34:	60 95       	com	r22
    1a36:	70 95       	com	r23
    1a38:	8d 85       	ldd	r24, Y+13	; 0x0d
    1a3a:	9e 85       	ldd	r25, Y+14	; 0x0e
    1a3c:	af 85       	ldd	r26, Y+15	; 0x0f
    1a3e:	b8 89       	ldd	r27, Y+16	; 0x10
    1a40:	84 23       	and	r24, r20
    1a42:	95 23       	and	r25, r21
    1a44:	a6 23       	and	r26, r22
    1a46:	b7 23       	and	r27, r23
    1a48:	80 2b       	or	r24, r16
    1a4a:	91 2b       	or	r25, r17
    1a4c:	a2 2b       	or	r26, r18
    1a4e:	b3 2b       	or	r27, r19
    1a50:	f2 01       	movw	r30, r4
    1a52:	e0 a8       	ldd	r14, Z+48	; 0x30
    1a54:	f1 a8       	ldd	r15, Z+49	; 0x31
    1a56:	02 a9       	ldd	r16, Z+50	; 0x32
    1a58:	13 a9       	ldd	r17, Z+51	; 0x33
    1a5a:	bf 93       	push	r27
    1a5c:	af 93       	push	r26
    1a5e:	9f 93       	push	r25
    1a60:	8f 93       	push	r24
    1a62:	0f 2e       	mov	r0, r31
    1a64:	fa e8       	ldi	r31, 0x8A	; 138
    1a66:	8f 2e       	mov	r8, r31
    1a68:	fc e4       	ldi	r31, 0x4C	; 76
    1a6a:	9f 2e       	mov	r9, r31
    1a6c:	fa e2       	ldi	r31, 0x2A	; 42
    1a6e:	af 2e       	mov	r10, r31
    1a70:	fd e8       	ldi	r31, 0x8D	; 141
    1a72:	bf 2e       	mov	r11, r31
    1a74:	f0 2d       	mov	r31, r0
    1a76:	0f 2e       	mov	r0, r31
    1a78:	f4 e1       	ldi	r31, 0x14	; 20
    1a7a:	cf 2e       	mov	r12, r31
    1a7c:	d1 2c       	mov	r13, r1
    1a7e:	f0 2d       	mov	r31, r0
    1a80:	9e 01       	movw	r18, r28
    1a82:	2f 5f       	subi	r18, 0xFF	; 255
    1a84:	3f 4f       	sbci	r19, 0xFF	; 255
    1a86:	ae 01       	movw	r20, r28
    1a88:	43 5f       	subi	r20, 0xF3	; 243
    1a8a:	5f 4f       	sbci	r21, 0xFF	; 255
    1a8c:	be 01       	movw	r22, r28
    1a8e:	67 5f       	subi	r22, 0xF7	; 247
    1a90:	7f 4f       	sbci	r23, 0xFF	; 255
    1a92:	ce 01       	movw	r24, r28
    1a94:	05 96       	adiw	r24, 0x05	; 5
    1a96:	0e 94 30 04 	call	0x860	; 0x860 <_Z10raund_funcPmS_S_S_mimm>

        //3
        raund_func(&a, &b, &c, &d, X[5], 4, T[32],   FunH(b, c, d));
    1a9a:	4d 81       	ldd	r20, Y+5	; 0x05
    1a9c:	5e 81       	ldd	r21, Y+6	; 0x06
    1a9e:	6f 81       	ldd	r22, Y+7	; 0x07
    1aa0:	78 85       	ldd	r23, Y+8	; 0x08
    1aa2:	89 85       	ldd	r24, Y+9	; 0x09
    1aa4:	9a 85       	ldd	r25, Y+10	; 0x0a
    1aa6:	ab 85       	ldd	r26, Y+11	; 0x0b
    1aa8:	bc 85       	ldd	r27, Y+12	; 0x0c
    1aaa:	84 27       	eor	r24, r20
    1aac:	95 27       	eor	r25, r21
    1aae:	a6 27       	eor	r26, r22
    1ab0:	b7 27       	eor	r27, r23
    1ab2:	4d 85       	ldd	r20, Y+13	; 0x0d
    1ab4:	5e 85       	ldd	r21, Y+14	; 0x0e
    1ab6:	6f 85       	ldd	r22, Y+15	; 0x0f
    1ab8:	78 89       	ldd	r23, Y+16	; 0x10
    1aba:	84 27       	eor	r24, r20
    1abc:	95 27       	eor	r25, r21
    1abe:	a6 27       	eor	r26, r22
    1ac0:	b7 27       	eor	r27, r23
    1ac2:	f2 01       	movw	r30, r4
    1ac4:	e4 88       	ldd	r14, Z+20	; 0x14
    1ac6:	f5 88       	ldd	r15, Z+21	; 0x15
    1ac8:	06 89       	ldd	r16, Z+22	; 0x16
    1aca:	17 89       	ldd	r17, Z+23	; 0x17
    1acc:	0f b6       	in	r0, 0x3f	; 63
    1ace:	f8 94       	cli
    1ad0:	de bf       	out	0x3e, r29	; 62
    1ad2:	0f be       	out	0x3f, r0	; 63
    1ad4:	cd bf       	out	0x3d, r28	; 61
    1ad6:	bf 93       	push	r27
    1ad8:	af 93       	push	r26
    1ada:	9f 93       	push	r25
    1adc:	8f 93       	push	r24
    1ade:	0f 2e       	mov	r0, r31
    1ae0:	f2 e4       	ldi	r31, 0x42	; 66
    1ae2:	8f 2e       	mov	r8, r31
    1ae4:	f9 e3       	ldi	r31, 0x39	; 57
    1ae6:	9f 2e       	mov	r9, r31
    1ae8:	fa ef       	ldi	r31, 0xFA	; 250
    1aea:	af 2e       	mov	r10, r31
    1aec:	bb 24       	eor	r11, r11
    1aee:	ba 94       	dec	r11
    1af0:	f0 2d       	mov	r31, r0
    1af2:	68 94       	set
    1af4:	cc 24       	eor	r12, r12
    1af6:	c2 f8       	bld	r12, 2
    1af8:	d1 2c       	mov	r13, r1
    1afa:	9e 01       	movw	r18, r28
    1afc:	23 5f       	subi	r18, 0xF3	; 243
    1afe:	3f 4f       	sbci	r19, 0xFF	; 255
    1b00:	ae 01       	movw	r20, r28
    1b02:	47 5f       	subi	r20, 0xF7	; 247
    1b04:	5f 4f       	sbci	r21, 0xFF	; 255
    1b06:	be 01       	movw	r22, r28
    1b08:	6b 5f       	subi	r22, 0xFB	; 251
    1b0a:	7f 4f       	sbci	r23, 0xFF	; 255
    1b0c:	ce 01       	movw	r24, r28
    1b0e:	01 96       	adiw	r24, 0x01	; 1
    1b10:	0e 94 30 04 	call	0x860	; 0x860 <_Z10raund_funcPmS_S_S_mimm>
        raund_func(&d, &a, &b, &c, X[8], 11, T[33],  FunH(a, b, c));
    1b14:	49 81       	ldd	r20, Y+1	; 0x01
    1b16:	5a 81       	ldd	r21, Y+2	; 0x02
    1b18:	6b 81       	ldd	r22, Y+3	; 0x03
    1b1a:	7c 81       	ldd	r23, Y+4	; 0x04
    1b1c:	8d 81       	ldd	r24, Y+5	; 0x05
    1b1e:	9e 81       	ldd	r25, Y+6	; 0x06
    1b20:	af 81       	ldd	r26, Y+7	; 0x07
    1b22:	b8 85       	ldd	r27, Y+8	; 0x08
    1b24:	84 27       	eor	r24, r20
    1b26:	95 27       	eor	r25, r21
    1b28:	a6 27       	eor	r26, r22
    1b2a:	b7 27       	eor	r27, r23
    1b2c:	49 85       	ldd	r20, Y+9	; 0x09
    1b2e:	5a 85       	ldd	r21, Y+10	; 0x0a
    1b30:	6b 85       	ldd	r22, Y+11	; 0x0b
    1b32:	7c 85       	ldd	r23, Y+12	; 0x0c
    1b34:	84 27       	eor	r24, r20
    1b36:	95 27       	eor	r25, r21
    1b38:	a6 27       	eor	r26, r22
    1b3a:	b7 27       	eor	r27, r23
    1b3c:	f2 01       	movw	r30, r4
    1b3e:	e0 a0       	ldd	r14, Z+32	; 0x20
    1b40:	f1 a0       	ldd	r15, Z+33	; 0x21
    1b42:	02 a1       	ldd	r16, Z+34	; 0x22
    1b44:	13 a1       	ldd	r17, Z+35	; 0x23
    1b46:	bf 93       	push	r27
    1b48:	af 93       	push	r26
    1b4a:	9f 93       	push	r25
    1b4c:	8f 93       	push	r24
    1b4e:	0f 2e       	mov	r0, r31
    1b50:	f1 e8       	ldi	r31, 0x81	; 129
    1b52:	8f 2e       	mov	r8, r31
    1b54:	f6 ef       	ldi	r31, 0xF6	; 246
    1b56:	9f 2e       	mov	r9, r31
    1b58:	f1 e7       	ldi	r31, 0x71	; 113
    1b5a:	af 2e       	mov	r10, r31
    1b5c:	f7 e8       	ldi	r31, 0x87	; 135
    1b5e:	bf 2e       	mov	r11, r31
    1b60:	f0 2d       	mov	r31, r0
    1b62:	0f 2e       	mov	r0, r31
    1b64:	fb e0       	ldi	r31, 0x0B	; 11
    1b66:	cf 2e       	mov	r12, r31
    1b68:	d1 2c       	mov	r13, r1
    1b6a:	f0 2d       	mov	r31, r0
    1b6c:	9e 01       	movw	r18, r28
    1b6e:	27 5f       	subi	r18, 0xF7	; 247
    1b70:	3f 4f       	sbci	r19, 0xFF	; 255
    1b72:	ae 01       	movw	r20, r28
    1b74:	4b 5f       	subi	r20, 0xFB	; 251
    1b76:	5f 4f       	sbci	r21, 0xFF	; 255
    1b78:	be 01       	movw	r22, r28
    1b7a:	6f 5f       	subi	r22, 0xFF	; 255
    1b7c:	7f 4f       	sbci	r23, 0xFF	; 255
    1b7e:	ce 01       	movw	r24, r28
    1b80:	0d 96       	adiw	r24, 0x0d	; 13
    1b82:	0e 94 30 04 	call	0x860	; 0x860 <_Z10raund_funcPmS_S_S_mimm>
        raund_func(&c, &d, &a, &b, X[11], 16, T[34], FunH(d, a, b));
    1b86:	4d 85       	ldd	r20, Y+13	; 0x0d
    1b88:	5e 85       	ldd	r21, Y+14	; 0x0e
    1b8a:	6f 85       	ldd	r22, Y+15	; 0x0f
    1b8c:	78 89       	ldd	r23, Y+16	; 0x10
    1b8e:	89 81       	ldd	r24, Y+1	; 0x01
    1b90:	9a 81       	ldd	r25, Y+2	; 0x02
    1b92:	ab 81       	ldd	r26, Y+3	; 0x03
    1b94:	bc 81       	ldd	r27, Y+4	; 0x04
    1b96:	84 27       	eor	r24, r20
    1b98:	95 27       	eor	r25, r21
    1b9a:	a6 27       	eor	r26, r22
    1b9c:	b7 27       	eor	r27, r23
    1b9e:	4d 81       	ldd	r20, Y+5	; 0x05
    1ba0:	5e 81       	ldd	r21, Y+6	; 0x06
    1ba2:	6f 81       	ldd	r22, Y+7	; 0x07
    1ba4:	78 85       	ldd	r23, Y+8	; 0x08
    1ba6:	84 27       	eor	r24, r20
    1ba8:	95 27       	eor	r25, r21
    1baa:	a6 27       	eor	r26, r22
    1bac:	b7 27       	eor	r27, r23
    1bae:	f2 01       	movw	r30, r4
    1bb0:	e4 a4       	ldd	r14, Z+44	; 0x2c
    1bb2:	f5 a4       	ldd	r15, Z+45	; 0x2d
    1bb4:	06 a5       	ldd	r16, Z+46	; 0x2e
    1bb6:	17 a5       	ldd	r17, Z+47	; 0x2f
    1bb8:	bf 93       	push	r27
    1bba:	af 93       	push	r26
    1bbc:	9f 93       	push	r25
    1bbe:	8f 93       	push	r24
    1bc0:	0f 2e       	mov	r0, r31
    1bc2:	f2 e2       	ldi	r31, 0x22	; 34
    1bc4:	8f 2e       	mov	r8, r31
    1bc6:	f1 e6       	ldi	r31, 0x61	; 97
    1bc8:	9f 2e       	mov	r9, r31
    1bca:	fd e9       	ldi	r31, 0x9D	; 157
    1bcc:	af 2e       	mov	r10, r31
    1bce:	fd e6       	ldi	r31, 0x6D	; 109
    1bd0:	bf 2e       	mov	r11, r31
    1bd2:	f0 2d       	mov	r31, r0
    1bd4:	68 94       	set
    1bd6:	cc 24       	eor	r12, r12
    1bd8:	c4 f8       	bld	r12, 4
    1bda:	d1 2c       	mov	r13, r1
    1bdc:	9e 01       	movw	r18, r28
    1bde:	2b 5f       	subi	r18, 0xFB	; 251
    1be0:	3f 4f       	sbci	r19, 0xFF	; 255
    1be2:	ae 01       	movw	r20, r28
    1be4:	4f 5f       	subi	r20, 0xFF	; 255
    1be6:	5f 4f       	sbci	r21, 0xFF	; 255
    1be8:	be 01       	movw	r22, r28
    1bea:	63 5f       	subi	r22, 0xF3	; 243
    1bec:	7f 4f       	sbci	r23, 0xFF	; 255
    1bee:	ce 01       	movw	r24, r28
    1bf0:	09 96       	adiw	r24, 0x09	; 9
    1bf2:	0e 94 30 04 	call	0x860	; 0x860 <_Z10raund_funcPmS_S_S_mimm>
        raund_func(&b, &c, &d, &a, X[14], 23, T[35], FunH(c, d, a));
    1bf6:	49 85       	ldd	r20, Y+9	; 0x09
    1bf8:	5a 85       	ldd	r21, Y+10	; 0x0a
    1bfa:	6b 85       	ldd	r22, Y+11	; 0x0b
    1bfc:	7c 85       	ldd	r23, Y+12	; 0x0c
    1bfe:	8d 85       	ldd	r24, Y+13	; 0x0d
    1c00:	9e 85       	ldd	r25, Y+14	; 0x0e
    1c02:	af 85       	ldd	r26, Y+15	; 0x0f
    1c04:	b8 89       	ldd	r27, Y+16	; 0x10
    1c06:	84 27       	eor	r24, r20
    1c08:	95 27       	eor	r25, r21
    1c0a:	a6 27       	eor	r26, r22
    1c0c:	b7 27       	eor	r27, r23
    1c0e:	49 81       	ldd	r20, Y+1	; 0x01
    1c10:	5a 81       	ldd	r21, Y+2	; 0x02
    1c12:	6b 81       	ldd	r22, Y+3	; 0x03
    1c14:	7c 81       	ldd	r23, Y+4	; 0x04
    1c16:	84 27       	eor	r24, r20
    1c18:	95 27       	eor	r25, r21
    1c1a:	a6 27       	eor	r26, r22
    1c1c:	b7 27       	eor	r27, r23
    1c1e:	f2 01       	movw	r30, r4
    1c20:	e0 ac       	ldd	r14, Z+56	; 0x38
    1c22:	f1 ac       	ldd	r15, Z+57	; 0x39
    1c24:	02 ad       	ldd	r16, Z+58	; 0x3a
    1c26:	13 ad       	ldd	r17, Z+59	; 0x3b
    1c28:	bf 93       	push	r27
    1c2a:	af 93       	push	r26
    1c2c:	9f 93       	push	r25
    1c2e:	8f 93       	push	r24
    1c30:	0f 2e       	mov	r0, r31
    1c32:	fc e0       	ldi	r31, 0x0C	; 12
    1c34:	8f 2e       	mov	r8, r31
    1c36:	f8 e3       	ldi	r31, 0x38	; 56
    1c38:	9f 2e       	mov	r9, r31
    1c3a:	f5 ee       	ldi	r31, 0xE5	; 229
    1c3c:	af 2e       	mov	r10, r31
    1c3e:	fd ef       	ldi	r31, 0xFD	; 253
    1c40:	bf 2e       	mov	r11, r31
    1c42:	f0 2d       	mov	r31, r0
    1c44:	0f 2e       	mov	r0, r31
    1c46:	f7 e1       	ldi	r31, 0x17	; 23
    1c48:	cf 2e       	mov	r12, r31
    1c4a:	d1 2c       	mov	r13, r1
    1c4c:	f0 2d       	mov	r31, r0
    1c4e:	9e 01       	movw	r18, r28
    1c50:	2f 5f       	subi	r18, 0xFF	; 255
    1c52:	3f 4f       	sbci	r19, 0xFF	; 255
    1c54:	ae 01       	movw	r20, r28
    1c56:	43 5f       	subi	r20, 0xF3	; 243
    1c58:	5f 4f       	sbci	r21, 0xFF	; 255
    1c5a:	be 01       	movw	r22, r28
    1c5c:	67 5f       	subi	r22, 0xF7	; 247
    1c5e:	7f 4f       	sbci	r23, 0xFF	; 255
    1c60:	ce 01       	movw	r24, r28
    1c62:	05 96       	adiw	r24, 0x05	; 5
    1c64:	0e 94 30 04 	call	0x860	; 0x860 <_Z10raund_funcPmS_S_S_mimm>

        raund_func(&a, &b, &c, &d, X[1], 4, T[36],   FunH(b, c, d));
    1c68:	4d 81       	ldd	r20, Y+5	; 0x05
    1c6a:	5e 81       	ldd	r21, Y+6	; 0x06
    1c6c:	6f 81       	ldd	r22, Y+7	; 0x07
    1c6e:	78 85       	ldd	r23, Y+8	; 0x08
    1c70:	89 85       	ldd	r24, Y+9	; 0x09
    1c72:	9a 85       	ldd	r25, Y+10	; 0x0a
    1c74:	ab 85       	ldd	r26, Y+11	; 0x0b
    1c76:	bc 85       	ldd	r27, Y+12	; 0x0c
    1c78:	84 27       	eor	r24, r20
    1c7a:	95 27       	eor	r25, r21
    1c7c:	a6 27       	eor	r26, r22
    1c7e:	b7 27       	eor	r27, r23
    1c80:	4d 85       	ldd	r20, Y+13	; 0x0d
    1c82:	5e 85       	ldd	r21, Y+14	; 0x0e
    1c84:	6f 85       	ldd	r22, Y+15	; 0x0f
    1c86:	78 89       	ldd	r23, Y+16	; 0x10
    1c88:	84 27       	eor	r24, r20
    1c8a:	95 27       	eor	r25, r21
    1c8c:	a6 27       	eor	r26, r22
    1c8e:	b7 27       	eor	r27, r23
    1c90:	f2 01       	movw	r30, r4
    1c92:	e4 80       	ldd	r14, Z+4	; 0x04
    1c94:	f5 80       	ldd	r15, Z+5	; 0x05
    1c96:	06 81       	ldd	r16, Z+6	; 0x06
    1c98:	17 81       	ldd	r17, Z+7	; 0x07
    1c9a:	bf 93       	push	r27
    1c9c:	af 93       	push	r26
    1c9e:	9f 93       	push	r25
    1ca0:	8f 93       	push	r24
    1ca2:	0f 2e       	mov	r0, r31
    1ca4:	f4 e4       	ldi	r31, 0x44	; 68
    1ca6:	8f 2e       	mov	r8, r31
    1ca8:	fa ee       	ldi	r31, 0xEA	; 234
    1caa:	9f 2e       	mov	r9, r31
    1cac:	fe eb       	ldi	r31, 0xBE	; 190
    1cae:	af 2e       	mov	r10, r31
    1cb0:	f4 ea       	ldi	r31, 0xA4	; 164
    1cb2:	bf 2e       	mov	r11, r31
    1cb4:	f0 2d       	mov	r31, r0
    1cb6:	68 94       	set
    1cb8:	cc 24       	eor	r12, r12
    1cba:	c2 f8       	bld	r12, 2
    1cbc:	d1 2c       	mov	r13, r1
    1cbe:	9e 01       	movw	r18, r28
    1cc0:	23 5f       	subi	r18, 0xF3	; 243
    1cc2:	3f 4f       	sbci	r19, 0xFF	; 255
    1cc4:	ae 01       	movw	r20, r28
    1cc6:	47 5f       	subi	r20, 0xF7	; 247
    1cc8:	5f 4f       	sbci	r21, 0xFF	; 255
    1cca:	be 01       	movw	r22, r28
    1ccc:	6b 5f       	subi	r22, 0xFB	; 251
    1cce:	7f 4f       	sbci	r23, 0xFF	; 255
    1cd0:	ce 01       	movw	r24, r28
    1cd2:	01 96       	adiw	r24, 0x01	; 1
    1cd4:	0e 94 30 04 	call	0x860	; 0x860 <_Z10raund_funcPmS_S_S_mimm>
        raund_func(&d, &a, &b, &c, X[4], 11, T[37],  FunH(a, b, c));
    1cd8:	49 81       	ldd	r20, Y+1	; 0x01
    1cda:	5a 81       	ldd	r21, Y+2	; 0x02
    1cdc:	6b 81       	ldd	r22, Y+3	; 0x03
    1cde:	7c 81       	ldd	r23, Y+4	; 0x04
    1ce0:	8d 81       	ldd	r24, Y+5	; 0x05
    1ce2:	9e 81       	ldd	r25, Y+6	; 0x06
    1ce4:	af 81       	ldd	r26, Y+7	; 0x07
    1ce6:	b8 85       	ldd	r27, Y+8	; 0x08
    1ce8:	84 27       	eor	r24, r20
    1cea:	95 27       	eor	r25, r21
    1cec:	a6 27       	eor	r26, r22
    1cee:	b7 27       	eor	r27, r23
    1cf0:	49 85       	ldd	r20, Y+9	; 0x09
    1cf2:	5a 85       	ldd	r21, Y+10	; 0x0a
    1cf4:	6b 85       	ldd	r22, Y+11	; 0x0b
    1cf6:	7c 85       	ldd	r23, Y+12	; 0x0c
    1cf8:	84 27       	eor	r24, r20
    1cfa:	95 27       	eor	r25, r21
    1cfc:	a6 27       	eor	r26, r22
    1cfe:	b7 27       	eor	r27, r23
    1d00:	f2 01       	movw	r30, r4
    1d02:	e0 88       	ldd	r14, Z+16	; 0x10
    1d04:	f1 88       	ldd	r15, Z+17	; 0x11
    1d06:	02 89       	ldd	r16, Z+18	; 0x12
    1d08:	13 89       	ldd	r17, Z+19	; 0x13
    1d0a:	bf 93       	push	r27
    1d0c:	af 93       	push	r26
    1d0e:	9f 93       	push	r25
    1d10:	8f 93       	push	r24
    1d12:	0f 2e       	mov	r0, r31
    1d14:	f9 ea       	ldi	r31, 0xA9	; 169
    1d16:	8f 2e       	mov	r8, r31
    1d18:	ff ec       	ldi	r31, 0xCF	; 207
    1d1a:	9f 2e       	mov	r9, r31
    1d1c:	fe ed       	ldi	r31, 0xDE	; 222
    1d1e:	af 2e       	mov	r10, r31
    1d20:	fb e4       	ldi	r31, 0x4B	; 75
    1d22:	bf 2e       	mov	r11, r31
    1d24:	f0 2d       	mov	r31, r0
    1d26:	0f 2e       	mov	r0, r31
    1d28:	fb e0       	ldi	r31, 0x0B	; 11
    1d2a:	cf 2e       	mov	r12, r31
    1d2c:	d1 2c       	mov	r13, r1
    1d2e:	f0 2d       	mov	r31, r0
    1d30:	9e 01       	movw	r18, r28
    1d32:	27 5f       	subi	r18, 0xF7	; 247
    1d34:	3f 4f       	sbci	r19, 0xFF	; 255
    1d36:	ae 01       	movw	r20, r28
    1d38:	4b 5f       	subi	r20, 0xFB	; 251
    1d3a:	5f 4f       	sbci	r21, 0xFF	; 255
    1d3c:	be 01       	movw	r22, r28
    1d3e:	6f 5f       	subi	r22, 0xFF	; 255
    1d40:	7f 4f       	sbci	r23, 0xFF	; 255
    1d42:	ce 01       	movw	r24, r28
    1d44:	0d 96       	adiw	r24, 0x0d	; 13
    1d46:	0e 94 30 04 	call	0x860	; 0x860 <_Z10raund_funcPmS_S_S_mimm>
        raund_func(&c, &d, &a, &b, X[7], 16, T[38],  FunH(d, a, b));
    1d4a:	4d 85       	ldd	r20, Y+13	; 0x0d
    1d4c:	5e 85       	ldd	r21, Y+14	; 0x0e
    1d4e:	6f 85       	ldd	r22, Y+15	; 0x0f
    1d50:	78 89       	ldd	r23, Y+16	; 0x10
    1d52:	89 81       	ldd	r24, Y+1	; 0x01
    1d54:	9a 81       	ldd	r25, Y+2	; 0x02
    1d56:	ab 81       	ldd	r26, Y+3	; 0x03
    1d58:	bc 81       	ldd	r27, Y+4	; 0x04
    1d5a:	84 27       	eor	r24, r20
    1d5c:	95 27       	eor	r25, r21
    1d5e:	a6 27       	eor	r26, r22
    1d60:	b7 27       	eor	r27, r23
    1d62:	4d 81       	ldd	r20, Y+5	; 0x05
    1d64:	5e 81       	ldd	r21, Y+6	; 0x06
    1d66:	6f 81       	ldd	r22, Y+7	; 0x07
    1d68:	78 85       	ldd	r23, Y+8	; 0x08
    1d6a:	84 27       	eor	r24, r20
    1d6c:	95 27       	eor	r25, r21
    1d6e:	a6 27       	eor	r26, r22
    1d70:	b7 27       	eor	r27, r23
    1d72:	f2 01       	movw	r30, r4
    1d74:	e4 8c       	ldd	r14, Z+28	; 0x1c
    1d76:	f5 8c       	ldd	r15, Z+29	; 0x1d
    1d78:	06 8d       	ldd	r16, Z+30	; 0x1e
    1d7a:	17 8d       	ldd	r17, Z+31	; 0x1f
    1d7c:	bf 93       	push	r27
    1d7e:	af 93       	push	r26
    1d80:	9f 93       	push	r25
    1d82:	8f 93       	push	r24
    1d84:	0f 2e       	mov	r0, r31
    1d86:	f0 e6       	ldi	r31, 0x60	; 96
    1d88:	8f 2e       	mov	r8, r31
    1d8a:	fb e4       	ldi	r31, 0x4B	; 75
    1d8c:	9f 2e       	mov	r9, r31
    1d8e:	fb eb       	ldi	r31, 0xBB	; 187
    1d90:	af 2e       	mov	r10, r31
    1d92:	f6 ef       	ldi	r31, 0xF6	; 246
    1d94:	bf 2e       	mov	r11, r31
    1d96:	f0 2d       	mov	r31, r0
    1d98:	68 94       	set
    1d9a:	cc 24       	eor	r12, r12
    1d9c:	c4 f8       	bld	r12, 4
    1d9e:	d1 2c       	mov	r13, r1
    1da0:	9e 01       	movw	r18, r28
    1da2:	2b 5f       	subi	r18, 0xFB	; 251
    1da4:	3f 4f       	sbci	r19, 0xFF	; 255
    1da6:	ae 01       	movw	r20, r28
    1da8:	4f 5f       	subi	r20, 0xFF	; 255
    1daa:	5f 4f       	sbci	r21, 0xFF	; 255
    1dac:	be 01       	movw	r22, r28
    1dae:	63 5f       	subi	r22, 0xF3	; 243
    1db0:	7f 4f       	sbci	r23, 0xFF	; 255
    1db2:	ce 01       	movw	r24, r28
    1db4:	09 96       	adiw	r24, 0x09	; 9
    1db6:	0e 94 30 04 	call	0x860	; 0x860 <_Z10raund_funcPmS_S_S_mimm>
        raund_func(&b, &c, &d, &a, X[10], 23, T[39], FunH(c, d, a));
    1dba:	49 85       	ldd	r20, Y+9	; 0x09
    1dbc:	5a 85       	ldd	r21, Y+10	; 0x0a
    1dbe:	6b 85       	ldd	r22, Y+11	; 0x0b
    1dc0:	7c 85       	ldd	r23, Y+12	; 0x0c
    1dc2:	8d 85       	ldd	r24, Y+13	; 0x0d
    1dc4:	9e 85       	ldd	r25, Y+14	; 0x0e
    1dc6:	af 85       	ldd	r26, Y+15	; 0x0f
    1dc8:	b8 89       	ldd	r27, Y+16	; 0x10
    1dca:	84 27       	eor	r24, r20
    1dcc:	95 27       	eor	r25, r21
    1dce:	a6 27       	eor	r26, r22
    1dd0:	b7 27       	eor	r27, r23
    1dd2:	49 81       	ldd	r20, Y+1	; 0x01
    1dd4:	5a 81       	ldd	r21, Y+2	; 0x02
    1dd6:	6b 81       	ldd	r22, Y+3	; 0x03
    1dd8:	7c 81       	ldd	r23, Y+4	; 0x04
    1dda:	84 27       	eor	r24, r20
    1ddc:	95 27       	eor	r25, r21
    1dde:	a6 27       	eor	r26, r22
    1de0:	b7 27       	eor	r27, r23
    1de2:	f2 01       	movw	r30, r4
    1de4:	e0 a4       	ldd	r14, Z+40	; 0x28
    1de6:	f1 a4       	ldd	r15, Z+41	; 0x29
    1de8:	02 a5       	ldd	r16, Z+42	; 0x2a
    1dea:	13 a5       	ldd	r17, Z+43	; 0x2b
    1dec:	bf 93       	push	r27
    1dee:	af 93       	push	r26
    1df0:	9f 93       	push	r25
    1df2:	8f 93       	push	r24
    1df4:	0f 2e       	mov	r0, r31
    1df6:	f0 e7       	ldi	r31, 0x70	; 112
    1df8:	8f 2e       	mov	r8, r31
    1dfa:	fc eb       	ldi	r31, 0xBC	; 188
    1dfc:	9f 2e       	mov	r9, r31
    1dfe:	ff eb       	ldi	r31, 0xBF	; 191
    1e00:	af 2e       	mov	r10, r31
    1e02:	fe eb       	ldi	r31, 0xBE	; 190
    1e04:	bf 2e       	mov	r11, r31
    1e06:	f0 2d       	mov	r31, r0
    1e08:	0f 2e       	mov	r0, r31
    1e0a:	f7 e1       	ldi	r31, 0x17	; 23
    1e0c:	cf 2e       	mov	r12, r31
    1e0e:	d1 2c       	mov	r13, r1
    1e10:	f0 2d       	mov	r31, r0
    1e12:	9e 01       	movw	r18, r28
    1e14:	2f 5f       	subi	r18, 0xFF	; 255
    1e16:	3f 4f       	sbci	r19, 0xFF	; 255
    1e18:	ae 01       	movw	r20, r28
    1e1a:	43 5f       	subi	r20, 0xF3	; 243
    1e1c:	5f 4f       	sbci	r21, 0xFF	; 255
    1e1e:	be 01       	movw	r22, r28
    1e20:	67 5f       	subi	r22, 0xF7	; 247
    1e22:	7f 4f       	sbci	r23, 0xFF	; 255
    1e24:	ce 01       	movw	r24, r28
    1e26:	05 96       	adiw	r24, 0x05	; 5
    1e28:	0e 94 30 04 	call	0x860	; 0x860 <_Z10raund_funcPmS_S_S_mimm>

        raund_func(&a, &b, &c, &d, X[13], 4, T[40],  FunH(b, c, d));
    1e2c:	4d 81       	ldd	r20, Y+5	; 0x05
    1e2e:	5e 81       	ldd	r21, Y+6	; 0x06
    1e30:	6f 81       	ldd	r22, Y+7	; 0x07
    1e32:	78 85       	ldd	r23, Y+8	; 0x08
    1e34:	89 85       	ldd	r24, Y+9	; 0x09
    1e36:	9a 85       	ldd	r25, Y+10	; 0x0a
    1e38:	ab 85       	ldd	r26, Y+11	; 0x0b
    1e3a:	bc 85       	ldd	r27, Y+12	; 0x0c
    1e3c:	84 27       	eor	r24, r20
    1e3e:	95 27       	eor	r25, r21
    1e40:	a6 27       	eor	r26, r22
    1e42:	b7 27       	eor	r27, r23
    1e44:	4d 85       	ldd	r20, Y+13	; 0x0d
    1e46:	5e 85       	ldd	r21, Y+14	; 0x0e
    1e48:	6f 85       	ldd	r22, Y+15	; 0x0f
    1e4a:	78 89       	ldd	r23, Y+16	; 0x10
    1e4c:	84 27       	eor	r24, r20
    1e4e:	95 27       	eor	r25, r21
    1e50:	a6 27       	eor	r26, r22
    1e52:	b7 27       	eor	r27, r23
    1e54:	f2 01       	movw	r30, r4
    1e56:	e4 a8       	ldd	r14, Z+52	; 0x34
    1e58:	f5 a8       	ldd	r15, Z+53	; 0x35
    1e5a:	06 a9       	ldd	r16, Z+54	; 0x36
    1e5c:	17 a9       	ldd	r17, Z+55	; 0x37
    1e5e:	0f b6       	in	r0, 0x3f	; 63
    1e60:	f8 94       	cli
    1e62:	de bf       	out	0x3e, r29	; 62
    1e64:	0f be       	out	0x3f, r0	; 63
    1e66:	cd bf       	out	0x3d, r28	; 61
    1e68:	bf 93       	push	r27
    1e6a:	af 93       	push	r26
    1e6c:	9f 93       	push	r25
    1e6e:	8f 93       	push	r24
    1e70:	0f 2e       	mov	r0, r31
    1e72:	f6 ec       	ldi	r31, 0xC6	; 198
    1e74:	8f 2e       	mov	r8, r31
    1e76:	fe e7       	ldi	r31, 0x7E	; 126
    1e78:	9f 2e       	mov	r9, r31
    1e7a:	fb e9       	ldi	r31, 0x9B	; 155
    1e7c:	af 2e       	mov	r10, r31
    1e7e:	f8 e2       	ldi	r31, 0x28	; 40
    1e80:	bf 2e       	mov	r11, r31
    1e82:	f0 2d       	mov	r31, r0
    1e84:	68 94       	set
    1e86:	cc 24       	eor	r12, r12
    1e88:	c2 f8       	bld	r12, 2
    1e8a:	d1 2c       	mov	r13, r1
    1e8c:	9e 01       	movw	r18, r28
    1e8e:	23 5f       	subi	r18, 0xF3	; 243
    1e90:	3f 4f       	sbci	r19, 0xFF	; 255
    1e92:	ae 01       	movw	r20, r28
    1e94:	47 5f       	subi	r20, 0xF7	; 247
    1e96:	5f 4f       	sbci	r21, 0xFF	; 255
    1e98:	be 01       	movw	r22, r28
    1e9a:	6b 5f       	subi	r22, 0xFB	; 251
    1e9c:	7f 4f       	sbci	r23, 0xFF	; 255
    1e9e:	ce 01       	movw	r24, r28
    1ea0:	01 96       	adiw	r24, 0x01	; 1
    1ea2:	0e 94 30 04 	call	0x860	; 0x860 <_Z10raund_funcPmS_S_S_mimm>
        raund_func(&d, &a, &b, &c, X[0], 11, T[41],  FunH(a, b, c));
    1ea6:	49 81       	ldd	r20, Y+1	; 0x01
    1ea8:	5a 81       	ldd	r21, Y+2	; 0x02
    1eaa:	6b 81       	ldd	r22, Y+3	; 0x03
    1eac:	7c 81       	ldd	r23, Y+4	; 0x04
    1eae:	8d 81       	ldd	r24, Y+5	; 0x05
    1eb0:	9e 81       	ldd	r25, Y+6	; 0x06
    1eb2:	af 81       	ldd	r26, Y+7	; 0x07
    1eb4:	b8 85       	ldd	r27, Y+8	; 0x08
    1eb6:	84 27       	eor	r24, r20
    1eb8:	95 27       	eor	r25, r21
    1eba:	a6 27       	eor	r26, r22
    1ebc:	b7 27       	eor	r27, r23
    1ebe:	49 85       	ldd	r20, Y+9	; 0x09
    1ec0:	5a 85       	ldd	r21, Y+10	; 0x0a
    1ec2:	6b 85       	ldd	r22, Y+11	; 0x0b
    1ec4:	7c 85       	ldd	r23, Y+12	; 0x0c
    1ec6:	84 27       	eor	r24, r20
    1ec8:	95 27       	eor	r25, r21
    1eca:	a6 27       	eor	r26, r22
    1ecc:	b7 27       	eor	r27, r23
    1ece:	f2 01       	movw	r30, r4
    1ed0:	e0 80       	ld	r14, Z
    1ed2:	f1 80       	ldd	r15, Z+1	; 0x01
    1ed4:	02 81       	ldd	r16, Z+2	; 0x02
    1ed6:	13 81       	ldd	r17, Z+3	; 0x03
    1ed8:	bf 93       	push	r27
    1eda:	af 93       	push	r26
    1edc:	9f 93       	push	r25
    1ede:	8f 93       	push	r24
    1ee0:	0f 2e       	mov	r0, r31
    1ee2:	fa ef       	ldi	r31, 0xFA	; 250
    1ee4:	8f 2e       	mov	r8, r31
    1ee6:	f7 e2       	ldi	r31, 0x27	; 39
    1ee8:	9f 2e       	mov	r9, r31
    1eea:	f1 ea       	ldi	r31, 0xA1	; 161
    1eec:	af 2e       	mov	r10, r31
    1eee:	fa ee       	ldi	r31, 0xEA	; 234
    1ef0:	bf 2e       	mov	r11, r31
    1ef2:	f0 2d       	mov	r31, r0
    1ef4:	0f 2e       	mov	r0, r31
    1ef6:	fb e0       	ldi	r31, 0x0B	; 11
    1ef8:	cf 2e       	mov	r12, r31
    1efa:	d1 2c       	mov	r13, r1
    1efc:	f0 2d       	mov	r31, r0
    1efe:	9e 01       	movw	r18, r28
    1f00:	27 5f       	subi	r18, 0xF7	; 247
    1f02:	3f 4f       	sbci	r19, 0xFF	; 255
    1f04:	ae 01       	movw	r20, r28
    1f06:	4b 5f       	subi	r20, 0xFB	; 251
    1f08:	5f 4f       	sbci	r21, 0xFF	; 255
    1f0a:	be 01       	movw	r22, r28
    1f0c:	6f 5f       	subi	r22, 0xFF	; 255
    1f0e:	7f 4f       	sbci	r23, 0xFF	; 255
    1f10:	ce 01       	movw	r24, r28
    1f12:	0d 96       	adiw	r24, 0x0d	; 13
    1f14:	0e 94 30 04 	call	0x860	; 0x860 <_Z10raund_funcPmS_S_S_mimm>
        raund_func(&c, &d, &a, &b, X[3], 16, T[42],  FunH(d, a, b));
    1f18:	4d 85       	ldd	r20, Y+13	; 0x0d
    1f1a:	5e 85       	ldd	r21, Y+14	; 0x0e
    1f1c:	6f 85       	ldd	r22, Y+15	; 0x0f
    1f1e:	78 89       	ldd	r23, Y+16	; 0x10
    1f20:	89 81       	ldd	r24, Y+1	; 0x01
    1f22:	9a 81       	ldd	r25, Y+2	; 0x02
    1f24:	ab 81       	ldd	r26, Y+3	; 0x03
    1f26:	bc 81       	ldd	r27, Y+4	; 0x04
    1f28:	84 27       	eor	r24, r20
    1f2a:	95 27       	eor	r25, r21
    1f2c:	a6 27       	eor	r26, r22
    1f2e:	b7 27       	eor	r27, r23
    1f30:	4d 81       	ldd	r20, Y+5	; 0x05
    1f32:	5e 81       	ldd	r21, Y+6	; 0x06
    1f34:	6f 81       	ldd	r22, Y+7	; 0x07
    1f36:	78 85       	ldd	r23, Y+8	; 0x08
    1f38:	84 27       	eor	r24, r20
    1f3a:	95 27       	eor	r25, r21
    1f3c:	a6 27       	eor	r26, r22
    1f3e:	b7 27       	eor	r27, r23
    1f40:	f2 01       	movw	r30, r4
    1f42:	e4 84       	ldd	r14, Z+12	; 0x0c
    1f44:	f5 84       	ldd	r15, Z+13	; 0x0d
    1f46:	06 85       	ldd	r16, Z+14	; 0x0e
    1f48:	17 85       	ldd	r17, Z+15	; 0x0f
    1f4a:	bf 93       	push	r27
    1f4c:	af 93       	push	r26
    1f4e:	9f 93       	push	r25
    1f50:	8f 93       	push	r24
    1f52:	0f 2e       	mov	r0, r31
    1f54:	f5 e8       	ldi	r31, 0x85	; 133
    1f56:	8f 2e       	mov	r8, r31
    1f58:	f0 e3       	ldi	r31, 0x30	; 48
    1f5a:	9f 2e       	mov	r9, r31
    1f5c:	ff ee       	ldi	r31, 0xEF	; 239
    1f5e:	af 2e       	mov	r10, r31
    1f60:	f4 ed       	ldi	r31, 0xD4	; 212
    1f62:	bf 2e       	mov	r11, r31
    1f64:	f0 2d       	mov	r31, r0
    1f66:	68 94       	set
    1f68:	cc 24       	eor	r12, r12
    1f6a:	c4 f8       	bld	r12, 4
    1f6c:	d1 2c       	mov	r13, r1
    1f6e:	9e 01       	movw	r18, r28
    1f70:	2b 5f       	subi	r18, 0xFB	; 251
    1f72:	3f 4f       	sbci	r19, 0xFF	; 255
    1f74:	ae 01       	movw	r20, r28
    1f76:	4f 5f       	subi	r20, 0xFF	; 255
    1f78:	5f 4f       	sbci	r21, 0xFF	; 255
    1f7a:	be 01       	movw	r22, r28
    1f7c:	63 5f       	subi	r22, 0xF3	; 243
    1f7e:	7f 4f       	sbci	r23, 0xFF	; 255
    1f80:	ce 01       	movw	r24, r28
    1f82:	09 96       	adiw	r24, 0x09	; 9
    1f84:	0e 94 30 04 	call	0x860	; 0x860 <_Z10raund_funcPmS_S_S_mimm>
        raund_func(&b, &c, &d, &a, X[6], 23, T[43],  FunH(c, d, a));
    1f88:	49 85       	ldd	r20, Y+9	; 0x09
    1f8a:	5a 85       	ldd	r21, Y+10	; 0x0a
    1f8c:	6b 85       	ldd	r22, Y+11	; 0x0b
    1f8e:	7c 85       	ldd	r23, Y+12	; 0x0c
    1f90:	8d 85       	ldd	r24, Y+13	; 0x0d
    1f92:	9e 85       	ldd	r25, Y+14	; 0x0e
    1f94:	af 85       	ldd	r26, Y+15	; 0x0f
    1f96:	b8 89       	ldd	r27, Y+16	; 0x10
    1f98:	84 27       	eor	r24, r20
    1f9a:	95 27       	eor	r25, r21
    1f9c:	a6 27       	eor	r26, r22
    1f9e:	b7 27       	eor	r27, r23
    1fa0:	49 81       	ldd	r20, Y+1	; 0x01
    1fa2:	5a 81       	ldd	r21, Y+2	; 0x02
    1fa4:	6b 81       	ldd	r22, Y+3	; 0x03
    1fa6:	7c 81       	ldd	r23, Y+4	; 0x04
    1fa8:	84 27       	eor	r24, r20
    1faa:	95 27       	eor	r25, r21
    1fac:	a6 27       	eor	r26, r22
    1fae:	b7 27       	eor	r27, r23
    1fb0:	f2 01       	movw	r30, r4
    1fb2:	e0 8c       	ldd	r14, Z+24	; 0x18
    1fb4:	f1 8c       	ldd	r15, Z+25	; 0x19
    1fb6:	02 8d       	ldd	r16, Z+26	; 0x1a
    1fb8:	13 8d       	ldd	r17, Z+27	; 0x1b
    1fba:	bf 93       	push	r27
    1fbc:	af 93       	push	r26
    1fbe:	9f 93       	push	r25
    1fc0:	8f 93       	push	r24
    1fc2:	0f 2e       	mov	r0, r31
    1fc4:	f5 e0       	ldi	r31, 0x05	; 5
    1fc6:	8f 2e       	mov	r8, r31
    1fc8:	fd e1       	ldi	r31, 0x1D	; 29
    1fca:	9f 2e       	mov	r9, r31
    1fcc:	f8 e8       	ldi	r31, 0x88	; 136
    1fce:	af 2e       	mov	r10, r31
    1fd0:	f4 e0       	ldi	r31, 0x04	; 4
    1fd2:	bf 2e       	mov	r11, r31
    1fd4:	f0 2d       	mov	r31, r0
    1fd6:	0f 2e       	mov	r0, r31
    1fd8:	f7 e1       	ldi	r31, 0x17	; 23
    1fda:	cf 2e       	mov	r12, r31
    1fdc:	d1 2c       	mov	r13, r1
    1fde:	f0 2d       	mov	r31, r0
    1fe0:	9e 01       	movw	r18, r28
    1fe2:	2f 5f       	subi	r18, 0xFF	; 255
    1fe4:	3f 4f       	sbci	r19, 0xFF	; 255
    1fe6:	ae 01       	movw	r20, r28
    1fe8:	43 5f       	subi	r20, 0xF3	; 243
    1fea:	5f 4f       	sbci	r21, 0xFF	; 255
    1fec:	be 01       	movw	r22, r28
    1fee:	67 5f       	subi	r22, 0xF7	; 247
    1ff0:	7f 4f       	sbci	r23, 0xFF	; 255
    1ff2:	ce 01       	movw	r24, r28
    1ff4:	05 96       	adiw	r24, 0x05	; 5
    1ff6:	0e 94 30 04 	call	0x860	; 0x860 <_Z10raund_funcPmS_S_S_mimm>

        raund_func(&a, &b, &c, &d, X[9], 4, T[44],   FunH(b, c, d));
    1ffa:	4d 81       	ldd	r20, Y+5	; 0x05
    1ffc:	5e 81       	ldd	r21, Y+6	; 0x06
    1ffe:	6f 81       	ldd	r22, Y+7	; 0x07
    2000:	78 85       	ldd	r23, Y+8	; 0x08
    2002:	89 85       	ldd	r24, Y+9	; 0x09
    2004:	9a 85       	ldd	r25, Y+10	; 0x0a
    2006:	ab 85       	ldd	r26, Y+11	; 0x0b
    2008:	bc 85       	ldd	r27, Y+12	; 0x0c
    200a:	84 27       	eor	r24, r20
    200c:	95 27       	eor	r25, r21
    200e:	a6 27       	eor	r26, r22
    2010:	b7 27       	eor	r27, r23
    2012:	4d 85       	ldd	r20, Y+13	; 0x0d
    2014:	5e 85       	ldd	r21, Y+14	; 0x0e
    2016:	6f 85       	ldd	r22, Y+15	; 0x0f
    2018:	78 89       	ldd	r23, Y+16	; 0x10
    201a:	84 27       	eor	r24, r20
    201c:	95 27       	eor	r25, r21
    201e:	a6 27       	eor	r26, r22
    2020:	b7 27       	eor	r27, r23
    2022:	f2 01       	movw	r30, r4
    2024:	e4 a0       	ldd	r14, Z+36	; 0x24
    2026:	f5 a0       	ldd	r15, Z+37	; 0x25
    2028:	06 a1       	ldd	r16, Z+38	; 0x26
    202a:	17 a1       	ldd	r17, Z+39	; 0x27
    202c:	bf 93       	push	r27
    202e:	af 93       	push	r26
    2030:	9f 93       	push	r25
    2032:	8f 93       	push	r24
    2034:	0f 2e       	mov	r0, r31
    2036:	f9 e3       	ldi	r31, 0x39	; 57
    2038:	8f 2e       	mov	r8, r31
    203a:	f0 ed       	ldi	r31, 0xD0	; 208
    203c:	9f 2e       	mov	r9, r31
    203e:	f4 ed       	ldi	r31, 0xD4	; 212
    2040:	af 2e       	mov	r10, r31
    2042:	f9 ed       	ldi	r31, 0xD9	; 217
    2044:	bf 2e       	mov	r11, r31
    2046:	f0 2d       	mov	r31, r0
    2048:	68 94       	set
    204a:	cc 24       	eor	r12, r12
    204c:	c2 f8       	bld	r12, 2
    204e:	d1 2c       	mov	r13, r1
    2050:	9e 01       	movw	r18, r28
    2052:	23 5f       	subi	r18, 0xF3	; 243
    2054:	3f 4f       	sbci	r19, 0xFF	; 255
    2056:	ae 01       	movw	r20, r28
    2058:	47 5f       	subi	r20, 0xF7	; 247
    205a:	5f 4f       	sbci	r21, 0xFF	; 255
    205c:	be 01       	movw	r22, r28
    205e:	6b 5f       	subi	r22, 0xFB	; 251
    2060:	7f 4f       	sbci	r23, 0xFF	; 255
    2062:	ce 01       	movw	r24, r28
    2064:	01 96       	adiw	r24, 0x01	; 1
    2066:	0e 94 30 04 	call	0x860	; 0x860 <_Z10raund_funcPmS_S_S_mimm>
        raund_func(&d, &a, &b, &c, X[12], 11, T[45], FunH(a, b, c));
    206a:	49 81       	ldd	r20, Y+1	; 0x01
    206c:	5a 81       	ldd	r21, Y+2	; 0x02
    206e:	6b 81       	ldd	r22, Y+3	; 0x03
    2070:	7c 81       	ldd	r23, Y+4	; 0x04
    2072:	8d 81       	ldd	r24, Y+5	; 0x05
    2074:	9e 81       	ldd	r25, Y+6	; 0x06
    2076:	af 81       	ldd	r26, Y+7	; 0x07
    2078:	b8 85       	ldd	r27, Y+8	; 0x08
    207a:	84 27       	eor	r24, r20
    207c:	95 27       	eor	r25, r21
    207e:	a6 27       	eor	r26, r22
    2080:	b7 27       	eor	r27, r23
    2082:	49 85       	ldd	r20, Y+9	; 0x09
    2084:	5a 85       	ldd	r21, Y+10	; 0x0a
    2086:	6b 85       	ldd	r22, Y+11	; 0x0b
    2088:	7c 85       	ldd	r23, Y+12	; 0x0c
    208a:	84 27       	eor	r24, r20
    208c:	95 27       	eor	r25, r21
    208e:	a6 27       	eor	r26, r22
    2090:	b7 27       	eor	r27, r23
    2092:	f2 01       	movw	r30, r4
    2094:	e0 a8       	ldd	r14, Z+48	; 0x30
    2096:	f1 a8       	ldd	r15, Z+49	; 0x31
    2098:	02 a9       	ldd	r16, Z+50	; 0x32
    209a:	13 a9       	ldd	r17, Z+51	; 0x33
    209c:	bf 93       	push	r27
    209e:	af 93       	push	r26
    20a0:	9f 93       	push	r25
    20a2:	8f 93       	push	r24
    20a4:	0f 2e       	mov	r0, r31
    20a6:	f5 ee       	ldi	r31, 0xE5	; 229
    20a8:	8f 2e       	mov	r8, r31
    20aa:	f9 e9       	ldi	r31, 0x99	; 153
    20ac:	9f 2e       	mov	r9, r31
    20ae:	fb ed       	ldi	r31, 0xDB	; 219
    20b0:	af 2e       	mov	r10, r31
    20b2:	f6 ee       	ldi	r31, 0xE6	; 230
    20b4:	bf 2e       	mov	r11, r31
    20b6:	f0 2d       	mov	r31, r0
    20b8:	0f 2e       	mov	r0, r31
    20ba:	fb e0       	ldi	r31, 0x0B	; 11
    20bc:	cf 2e       	mov	r12, r31
    20be:	d1 2c       	mov	r13, r1
    20c0:	f0 2d       	mov	r31, r0
    20c2:	9e 01       	movw	r18, r28
    20c4:	27 5f       	subi	r18, 0xF7	; 247
    20c6:	3f 4f       	sbci	r19, 0xFF	; 255
    20c8:	ae 01       	movw	r20, r28
    20ca:	4b 5f       	subi	r20, 0xFB	; 251
    20cc:	5f 4f       	sbci	r21, 0xFF	; 255
    20ce:	be 01       	movw	r22, r28
    20d0:	6f 5f       	subi	r22, 0xFF	; 255
    20d2:	7f 4f       	sbci	r23, 0xFF	; 255
    20d4:	ce 01       	movw	r24, r28
    20d6:	0d 96       	adiw	r24, 0x0d	; 13
    20d8:	0e 94 30 04 	call	0x860	; 0x860 <_Z10raund_funcPmS_S_S_mimm>
        raund_func(&c, &d, &a, &b, X[15], 16, T[46], FunH(d, a, b));
    20dc:	4d 85       	ldd	r20, Y+13	; 0x0d
    20de:	5e 85       	ldd	r21, Y+14	; 0x0e
    20e0:	6f 85       	ldd	r22, Y+15	; 0x0f
    20e2:	78 89       	ldd	r23, Y+16	; 0x10
    20e4:	89 81       	ldd	r24, Y+1	; 0x01
    20e6:	9a 81       	ldd	r25, Y+2	; 0x02
    20e8:	ab 81       	ldd	r26, Y+3	; 0x03
    20ea:	bc 81       	ldd	r27, Y+4	; 0x04
    20ec:	84 27       	eor	r24, r20
    20ee:	95 27       	eor	r25, r21
    20f0:	a6 27       	eor	r26, r22
    20f2:	b7 27       	eor	r27, r23
    20f4:	4d 81       	ldd	r20, Y+5	; 0x05
    20f6:	5e 81       	ldd	r21, Y+6	; 0x06
    20f8:	6f 81       	ldd	r22, Y+7	; 0x07
    20fa:	78 85       	ldd	r23, Y+8	; 0x08
    20fc:	84 27       	eor	r24, r20
    20fe:	95 27       	eor	r25, r21
    2100:	a6 27       	eor	r26, r22
    2102:	b7 27       	eor	r27, r23
    2104:	f2 01       	movw	r30, r4
    2106:	e4 ac       	ldd	r14, Z+60	; 0x3c
    2108:	f5 ac       	ldd	r15, Z+61	; 0x3d
    210a:	06 ad       	ldd	r16, Z+62	; 0x3e
    210c:	17 ad       	ldd	r17, Z+63	; 0x3f
    210e:	bf 93       	push	r27
    2110:	af 93       	push	r26
    2112:	9f 93       	push	r25
    2114:	8f 93       	push	r24
    2116:	0f 2e       	mov	r0, r31
    2118:	f8 ef       	ldi	r31, 0xF8	; 248
    211a:	8f 2e       	mov	r8, r31
    211c:	fc e7       	ldi	r31, 0x7C	; 124
    211e:	9f 2e       	mov	r9, r31
    2120:	f2 ea       	ldi	r31, 0xA2	; 162
    2122:	af 2e       	mov	r10, r31
    2124:	ff e1       	ldi	r31, 0x1F	; 31
    2126:	bf 2e       	mov	r11, r31
    2128:	f0 2d       	mov	r31, r0
    212a:	68 94       	set
    212c:	cc 24       	eor	r12, r12
    212e:	c4 f8       	bld	r12, 4
    2130:	d1 2c       	mov	r13, r1
    2132:	9e 01       	movw	r18, r28
    2134:	2b 5f       	subi	r18, 0xFB	; 251
    2136:	3f 4f       	sbci	r19, 0xFF	; 255
    2138:	ae 01       	movw	r20, r28
    213a:	4f 5f       	subi	r20, 0xFF	; 255
    213c:	5f 4f       	sbci	r21, 0xFF	; 255
    213e:	be 01       	movw	r22, r28
    2140:	63 5f       	subi	r22, 0xF3	; 243
    2142:	7f 4f       	sbci	r23, 0xFF	; 255
    2144:	ce 01       	movw	r24, r28
    2146:	09 96       	adiw	r24, 0x09	; 9
    2148:	0e 94 30 04 	call	0x860	; 0x860 <_Z10raund_funcPmS_S_S_mimm>
        raund_func(&b, &c, &d, &a, X[2], 23, T[47],  FunH(c, d, a));
    214c:	49 85       	ldd	r20, Y+9	; 0x09
    214e:	5a 85       	ldd	r21, Y+10	; 0x0a
    2150:	6b 85       	ldd	r22, Y+11	; 0x0b
    2152:	7c 85       	ldd	r23, Y+12	; 0x0c
    2154:	8d 85       	ldd	r24, Y+13	; 0x0d
    2156:	9e 85       	ldd	r25, Y+14	; 0x0e
    2158:	af 85       	ldd	r26, Y+15	; 0x0f
    215a:	b8 89       	ldd	r27, Y+16	; 0x10
    215c:	84 27       	eor	r24, r20
    215e:	95 27       	eor	r25, r21
    2160:	a6 27       	eor	r26, r22
    2162:	b7 27       	eor	r27, r23
    2164:	49 81       	ldd	r20, Y+1	; 0x01
    2166:	5a 81       	ldd	r21, Y+2	; 0x02
    2168:	6b 81       	ldd	r22, Y+3	; 0x03
    216a:	7c 81       	ldd	r23, Y+4	; 0x04
    216c:	84 27       	eor	r24, r20
    216e:	95 27       	eor	r25, r21
    2170:	a6 27       	eor	r26, r22
    2172:	b7 27       	eor	r27, r23
    2174:	f2 01       	movw	r30, r4
    2176:	e0 84       	ldd	r14, Z+8	; 0x08
    2178:	f1 84       	ldd	r15, Z+9	; 0x09
    217a:	02 85       	ldd	r16, Z+10	; 0x0a
    217c:	13 85       	ldd	r17, Z+11	; 0x0b
    217e:	bf 93       	push	r27
    2180:	af 93       	push	r26
    2182:	9f 93       	push	r25
    2184:	8f 93       	push	r24
    2186:	0f 2e       	mov	r0, r31
    2188:	f5 e6       	ldi	r31, 0x65	; 101
    218a:	8f 2e       	mov	r8, r31
    218c:	f6 e5       	ldi	r31, 0x56	; 86
    218e:	9f 2e       	mov	r9, r31
    2190:	fc ea       	ldi	r31, 0xAC	; 172
    2192:	af 2e       	mov	r10, r31
    2194:	f4 ec       	ldi	r31, 0xC4	; 196
    2196:	bf 2e       	mov	r11, r31
    2198:	f0 2d       	mov	r31, r0
    219a:	0f 2e       	mov	r0, r31
    219c:	f7 e1       	ldi	r31, 0x17	; 23
    219e:	cf 2e       	mov	r12, r31
    21a0:	d1 2c       	mov	r13, r1
    21a2:	f0 2d       	mov	r31, r0
    21a4:	9e 01       	movw	r18, r28
    21a6:	2f 5f       	subi	r18, 0xFF	; 255
    21a8:	3f 4f       	sbci	r19, 0xFF	; 255
    21aa:	ae 01       	movw	r20, r28
    21ac:	43 5f       	subi	r20, 0xF3	; 243
    21ae:	5f 4f       	sbci	r21, 0xFF	; 255
    21b0:	be 01       	movw	r22, r28
    21b2:	67 5f       	subi	r22, 0xF7	; 247
    21b4:	7f 4f       	sbci	r23, 0xFF	; 255
    21b6:	ce 01       	movw	r24, r28
    21b8:	05 96       	adiw	r24, 0x05	; 5
    21ba:	0e 94 30 04 	call	0x860	; 0x860 <_Z10raund_funcPmS_S_S_mimm>

        //4
        raund_func(&a, &b, &c, &d, X[0], 6, T[48],   FunI(b, c, d));
    21be:	8d 85       	ldd	r24, Y+13	; 0x0d
    21c0:	9e 85       	ldd	r25, Y+14	; 0x0e
    21c2:	af 85       	ldd	r26, Y+15	; 0x0f
    21c4:	b8 89       	ldd	r27, Y+16	; 0x10
    21c6:	80 95       	com	r24
    21c8:	90 95       	com	r25
    21ca:	a0 95       	com	r26
    21cc:	b0 95       	com	r27
    21ce:	4d 81       	ldd	r20, Y+5	; 0x05
    21d0:	5e 81       	ldd	r21, Y+6	; 0x06
    21d2:	6f 81       	ldd	r22, Y+7	; 0x07
    21d4:	78 85       	ldd	r23, Y+8	; 0x08
    21d6:	84 2b       	or	r24, r20
    21d8:	95 2b       	or	r25, r21
    21da:	a6 2b       	or	r26, r22
    21dc:	b7 2b       	or	r27, r23
    21de:	49 85       	ldd	r20, Y+9	; 0x09
    21e0:	5a 85       	ldd	r21, Y+10	; 0x0a
    21e2:	6b 85       	ldd	r22, Y+11	; 0x0b
    21e4:	7c 85       	ldd	r23, Y+12	; 0x0c
    21e6:	84 27       	eor	r24, r20
    21e8:	95 27       	eor	r25, r21
    21ea:	a6 27       	eor	r26, r22
    21ec:	b7 27       	eor	r27, r23
    21ee:	f2 01       	movw	r30, r4
    21f0:	e0 80       	ld	r14, Z
    21f2:	f1 80       	ldd	r15, Z+1	; 0x01
    21f4:	02 81       	ldd	r16, Z+2	; 0x02
    21f6:	13 81       	ldd	r17, Z+3	; 0x03
    21f8:	0f b6       	in	r0, 0x3f	; 63
    21fa:	f8 94       	cli
    21fc:	de bf       	out	0x3e, r29	; 62
    21fe:	0f be       	out	0x3f, r0	; 63
    2200:	cd bf       	out	0x3d, r28	; 61
    2202:	bf 93       	push	r27
    2204:	af 93       	push	r26
    2206:	9f 93       	push	r25
    2208:	8f 93       	push	r24
    220a:	0f 2e       	mov	r0, r31
    220c:	f4 e4       	ldi	r31, 0x44	; 68
    220e:	8f 2e       	mov	r8, r31
    2210:	f2 e2       	ldi	r31, 0x22	; 34
    2212:	9f 2e       	mov	r9, r31
    2214:	f9 e2       	ldi	r31, 0x29	; 41
    2216:	af 2e       	mov	r10, r31
    2218:	f4 ef       	ldi	r31, 0xF4	; 244
    221a:	bf 2e       	mov	r11, r31
    221c:	f0 2d       	mov	r31, r0
    221e:	0f 2e       	mov	r0, r31
    2220:	f6 e0       	ldi	r31, 0x06	; 6
    2222:	cf 2e       	mov	r12, r31
    2224:	d1 2c       	mov	r13, r1
    2226:	f0 2d       	mov	r31, r0
    2228:	9e 01       	movw	r18, r28
    222a:	23 5f       	subi	r18, 0xF3	; 243
    222c:	3f 4f       	sbci	r19, 0xFF	; 255
    222e:	ae 01       	movw	r20, r28
    2230:	47 5f       	subi	r20, 0xF7	; 247
    2232:	5f 4f       	sbci	r21, 0xFF	; 255
    2234:	be 01       	movw	r22, r28
    2236:	6b 5f       	subi	r22, 0xFB	; 251
    2238:	7f 4f       	sbci	r23, 0xFF	; 255
    223a:	ce 01       	movw	r24, r28
    223c:	01 96       	adiw	r24, 0x01	; 1
    223e:	0e 94 30 04 	call	0x860	; 0x860 <_Z10raund_funcPmS_S_S_mimm>
        raund_func(&d, &a, &b, &c, X[7], 10, T[49],  FunI(a, b, c));
    2242:	89 85       	ldd	r24, Y+9	; 0x09
    2244:	9a 85       	ldd	r25, Y+10	; 0x0a
    2246:	ab 85       	ldd	r26, Y+11	; 0x0b
    2248:	bc 85       	ldd	r27, Y+12	; 0x0c
    224a:	80 95       	com	r24
    224c:	90 95       	com	r25
    224e:	a0 95       	com	r26
    2250:	b0 95       	com	r27
    2252:	49 81       	ldd	r20, Y+1	; 0x01
    2254:	5a 81       	ldd	r21, Y+2	; 0x02
    2256:	6b 81       	ldd	r22, Y+3	; 0x03
    2258:	7c 81       	ldd	r23, Y+4	; 0x04
    225a:	84 2b       	or	r24, r20
    225c:	95 2b       	or	r25, r21
    225e:	a6 2b       	or	r26, r22
    2260:	b7 2b       	or	r27, r23
    2262:	4d 81       	ldd	r20, Y+5	; 0x05
    2264:	5e 81       	ldd	r21, Y+6	; 0x06
    2266:	6f 81       	ldd	r22, Y+7	; 0x07
    2268:	78 85       	ldd	r23, Y+8	; 0x08
    226a:	84 27       	eor	r24, r20
    226c:	95 27       	eor	r25, r21
    226e:	a6 27       	eor	r26, r22
    2270:	b7 27       	eor	r27, r23
    2272:	f2 01       	movw	r30, r4
    2274:	e4 8c       	ldd	r14, Z+28	; 0x1c
    2276:	f5 8c       	ldd	r15, Z+29	; 0x1d
    2278:	06 8d       	ldd	r16, Z+30	; 0x1e
    227a:	17 8d       	ldd	r17, Z+31	; 0x1f
    227c:	bf 93       	push	r27
    227e:	af 93       	push	r26
    2280:	9f 93       	push	r25
    2282:	8f 93       	push	r24
    2284:	0f 2e       	mov	r0, r31
    2286:	f7 e9       	ldi	r31, 0x97	; 151
    2288:	8f 2e       	mov	r8, r31
    228a:	99 24       	eor	r9, r9
    228c:	9a 94       	dec	r9
    228e:	fa e2       	ldi	r31, 0x2A	; 42
    2290:	af 2e       	mov	r10, r31
    2292:	f3 e4       	ldi	r31, 0x43	; 67
    2294:	bf 2e       	mov	r11, r31
    2296:	f0 2d       	mov	r31, r0
    2298:	0f 2e       	mov	r0, r31
    229a:	fa e0       	ldi	r31, 0x0A	; 10
    229c:	cf 2e       	mov	r12, r31
    229e:	d1 2c       	mov	r13, r1
    22a0:	f0 2d       	mov	r31, r0
    22a2:	9e 01       	movw	r18, r28
    22a4:	27 5f       	subi	r18, 0xF7	; 247
    22a6:	3f 4f       	sbci	r19, 0xFF	; 255
    22a8:	ae 01       	movw	r20, r28
    22aa:	4b 5f       	subi	r20, 0xFB	; 251
    22ac:	5f 4f       	sbci	r21, 0xFF	; 255
    22ae:	be 01       	movw	r22, r28
    22b0:	6f 5f       	subi	r22, 0xFF	; 255
    22b2:	7f 4f       	sbci	r23, 0xFF	; 255
    22b4:	ce 01       	movw	r24, r28
    22b6:	0d 96       	adiw	r24, 0x0d	; 13
    22b8:	0e 94 30 04 	call	0x860	; 0x860 <_Z10raund_funcPmS_S_S_mimm>
        raund_func(&c, &d, &a, &b, X[14], 15, T[50], FunI(d, a, b));
    22bc:	8d 81       	ldd	r24, Y+5	; 0x05
    22be:	9e 81       	ldd	r25, Y+6	; 0x06
    22c0:	af 81       	ldd	r26, Y+7	; 0x07
    22c2:	b8 85       	ldd	r27, Y+8	; 0x08
    22c4:	80 95       	com	r24
    22c6:	90 95       	com	r25
    22c8:	a0 95       	com	r26
    22ca:	b0 95       	com	r27
    22cc:	4d 85       	ldd	r20, Y+13	; 0x0d
    22ce:	5e 85       	ldd	r21, Y+14	; 0x0e
    22d0:	6f 85       	ldd	r22, Y+15	; 0x0f
    22d2:	78 89       	ldd	r23, Y+16	; 0x10
    22d4:	84 2b       	or	r24, r20
    22d6:	95 2b       	or	r25, r21
    22d8:	a6 2b       	or	r26, r22
    22da:	b7 2b       	or	r27, r23
    22dc:	49 81       	ldd	r20, Y+1	; 0x01
    22de:	5a 81       	ldd	r21, Y+2	; 0x02
    22e0:	6b 81       	ldd	r22, Y+3	; 0x03
    22e2:	7c 81       	ldd	r23, Y+4	; 0x04
    22e4:	84 27       	eor	r24, r20
    22e6:	95 27       	eor	r25, r21
    22e8:	a6 27       	eor	r26, r22
    22ea:	b7 27       	eor	r27, r23
    22ec:	f2 01       	movw	r30, r4
    22ee:	e0 ac       	ldd	r14, Z+56	; 0x38
    22f0:	f1 ac       	ldd	r15, Z+57	; 0x39
    22f2:	02 ad       	ldd	r16, Z+58	; 0x3a
    22f4:	13 ad       	ldd	r17, Z+59	; 0x3b
    22f6:	bf 93       	push	r27
    22f8:	af 93       	push	r26
    22fa:	9f 93       	push	r25
    22fc:	8f 93       	push	r24
    22fe:	0f 2e       	mov	r0, r31
    2300:	f7 ea       	ldi	r31, 0xA7	; 167
    2302:	8f 2e       	mov	r8, r31
    2304:	f3 e2       	ldi	r31, 0x23	; 35
    2306:	9f 2e       	mov	r9, r31
    2308:	f4 e9       	ldi	r31, 0x94	; 148
    230a:	af 2e       	mov	r10, r31
    230c:	fb ea       	ldi	r31, 0xAB	; 171
    230e:	bf 2e       	mov	r11, r31
    2310:	f0 2d       	mov	r31, r0
    2312:	0f 2e       	mov	r0, r31
    2314:	ff e0       	ldi	r31, 0x0F	; 15
    2316:	cf 2e       	mov	r12, r31
    2318:	d1 2c       	mov	r13, r1
    231a:	f0 2d       	mov	r31, r0
    231c:	9e 01       	movw	r18, r28
    231e:	2b 5f       	subi	r18, 0xFB	; 251
    2320:	3f 4f       	sbci	r19, 0xFF	; 255
    2322:	ae 01       	movw	r20, r28
    2324:	4f 5f       	subi	r20, 0xFF	; 255
    2326:	5f 4f       	sbci	r21, 0xFF	; 255
    2328:	be 01       	movw	r22, r28
    232a:	63 5f       	subi	r22, 0xF3	; 243
    232c:	7f 4f       	sbci	r23, 0xFF	; 255
    232e:	ce 01       	movw	r24, r28
    2330:	09 96       	adiw	r24, 0x09	; 9
    2332:	0e 94 30 04 	call	0x860	; 0x860 <_Z10raund_funcPmS_S_S_mimm>
        raund_func(&b, &c, &d, &a, X[5], 21, T[51],  FunI(c, d, a));
    2336:	89 81       	ldd	r24, Y+1	; 0x01
    2338:	9a 81       	ldd	r25, Y+2	; 0x02
    233a:	ab 81       	ldd	r26, Y+3	; 0x03
    233c:	bc 81       	ldd	r27, Y+4	; 0x04
    233e:	80 95       	com	r24
    2340:	90 95       	com	r25
    2342:	a0 95       	com	r26
    2344:	b0 95       	com	r27
    2346:	49 85       	ldd	r20, Y+9	; 0x09
    2348:	5a 85       	ldd	r21, Y+10	; 0x0a
    234a:	6b 85       	ldd	r22, Y+11	; 0x0b
    234c:	7c 85       	ldd	r23, Y+12	; 0x0c
    234e:	84 2b       	or	r24, r20
    2350:	95 2b       	or	r25, r21
    2352:	a6 2b       	or	r26, r22
    2354:	b7 2b       	or	r27, r23
    2356:	4d 85       	ldd	r20, Y+13	; 0x0d
    2358:	5e 85       	ldd	r21, Y+14	; 0x0e
    235a:	6f 85       	ldd	r22, Y+15	; 0x0f
    235c:	78 89       	ldd	r23, Y+16	; 0x10
    235e:	84 27       	eor	r24, r20
    2360:	95 27       	eor	r25, r21
    2362:	a6 27       	eor	r26, r22
    2364:	b7 27       	eor	r27, r23
    2366:	f2 01       	movw	r30, r4
    2368:	e4 88       	ldd	r14, Z+20	; 0x14
    236a:	f5 88       	ldd	r15, Z+21	; 0x15
    236c:	06 89       	ldd	r16, Z+22	; 0x16
    236e:	17 89       	ldd	r17, Z+23	; 0x17
    2370:	bf 93       	push	r27
    2372:	af 93       	push	r26
    2374:	9f 93       	push	r25
    2376:	8f 93       	push	r24
    2378:	0f 2e       	mov	r0, r31
    237a:	f9 e3       	ldi	r31, 0x39	; 57
    237c:	8f 2e       	mov	r8, r31
    237e:	f0 ea       	ldi	r31, 0xA0	; 160
    2380:	9f 2e       	mov	r9, r31
    2382:	f3 e9       	ldi	r31, 0x93	; 147
    2384:	af 2e       	mov	r10, r31
    2386:	fc ef       	ldi	r31, 0xFC	; 252
    2388:	bf 2e       	mov	r11, r31
    238a:	f0 2d       	mov	r31, r0
    238c:	0f 2e       	mov	r0, r31
    238e:	f5 e1       	ldi	r31, 0x15	; 21
    2390:	cf 2e       	mov	r12, r31
    2392:	d1 2c       	mov	r13, r1
    2394:	f0 2d       	mov	r31, r0
    2396:	9e 01       	movw	r18, r28
    2398:	2f 5f       	subi	r18, 0xFF	; 255
    239a:	3f 4f       	sbci	r19, 0xFF	; 255
    239c:	ae 01       	movw	r20, r28
    239e:	43 5f       	subi	r20, 0xF3	; 243
    23a0:	5f 4f       	sbci	r21, 0xFF	; 255
    23a2:	be 01       	movw	r22, r28
    23a4:	67 5f       	subi	r22, 0xF7	; 247
    23a6:	7f 4f       	sbci	r23, 0xFF	; 255
    23a8:	ce 01       	movw	r24, r28
    23aa:	05 96       	adiw	r24, 0x05	; 5
    23ac:	0e 94 30 04 	call	0x860	; 0x860 <_Z10raund_funcPmS_S_S_mimm>

        raund_func(&a, &b, &c, &d, X[12], 6, T[52],  FunI(b, c, d));
    23b0:	8d 85       	ldd	r24, Y+13	; 0x0d
    23b2:	9e 85       	ldd	r25, Y+14	; 0x0e
    23b4:	af 85       	ldd	r26, Y+15	; 0x0f
    23b6:	b8 89       	ldd	r27, Y+16	; 0x10
    23b8:	80 95       	com	r24
    23ba:	90 95       	com	r25
    23bc:	a0 95       	com	r26
    23be:	b0 95       	com	r27
    23c0:	4d 81       	ldd	r20, Y+5	; 0x05
    23c2:	5e 81       	ldd	r21, Y+6	; 0x06
    23c4:	6f 81       	ldd	r22, Y+7	; 0x07
    23c6:	78 85       	ldd	r23, Y+8	; 0x08
    23c8:	84 2b       	or	r24, r20
    23ca:	95 2b       	or	r25, r21
    23cc:	a6 2b       	or	r26, r22
    23ce:	b7 2b       	or	r27, r23
    23d0:	49 85       	ldd	r20, Y+9	; 0x09
    23d2:	5a 85       	ldd	r21, Y+10	; 0x0a
    23d4:	6b 85       	ldd	r22, Y+11	; 0x0b
    23d6:	7c 85       	ldd	r23, Y+12	; 0x0c
    23d8:	84 27       	eor	r24, r20
    23da:	95 27       	eor	r25, r21
    23dc:	a6 27       	eor	r26, r22
    23de:	b7 27       	eor	r27, r23
    23e0:	f2 01       	movw	r30, r4
    23e2:	e0 a8       	ldd	r14, Z+48	; 0x30
    23e4:	f1 a8       	ldd	r15, Z+49	; 0x31
    23e6:	02 a9       	ldd	r16, Z+50	; 0x32
    23e8:	13 a9       	ldd	r17, Z+51	; 0x33
    23ea:	bf 93       	push	r27
    23ec:	af 93       	push	r26
    23ee:	9f 93       	push	r25
    23f0:	8f 93       	push	r24
    23f2:	0f 2e       	mov	r0, r31
    23f4:	f3 ec       	ldi	r31, 0xC3	; 195
    23f6:	8f 2e       	mov	r8, r31
    23f8:	f9 e5       	ldi	r31, 0x59	; 89
    23fa:	9f 2e       	mov	r9, r31
    23fc:	fb e5       	ldi	r31, 0x5B	; 91
    23fe:	af 2e       	mov	r10, r31
    2400:	f5 e6       	ldi	r31, 0x65	; 101
    2402:	bf 2e       	mov	r11, r31
    2404:	f0 2d       	mov	r31, r0
    2406:	0f 2e       	mov	r0, r31
    2408:	f6 e0       	ldi	r31, 0x06	; 6
    240a:	cf 2e       	mov	r12, r31
    240c:	d1 2c       	mov	r13, r1
    240e:	f0 2d       	mov	r31, r0
    2410:	9e 01       	movw	r18, r28
    2412:	23 5f       	subi	r18, 0xF3	; 243
    2414:	3f 4f       	sbci	r19, 0xFF	; 255
    2416:	ae 01       	movw	r20, r28
    2418:	47 5f       	subi	r20, 0xF7	; 247
    241a:	5f 4f       	sbci	r21, 0xFF	; 255
    241c:	be 01       	movw	r22, r28
    241e:	6b 5f       	subi	r22, 0xFB	; 251
    2420:	7f 4f       	sbci	r23, 0xFF	; 255
    2422:	ce 01       	movw	r24, r28
    2424:	01 96       	adiw	r24, 0x01	; 1
    2426:	0e 94 30 04 	call	0x860	; 0x860 <_Z10raund_funcPmS_S_S_mimm>
        raund_func(&d, &a, &b, &c, X[3], 10, T[53],  FunI(a, b, c));
    242a:	89 85       	ldd	r24, Y+9	; 0x09
    242c:	9a 85       	ldd	r25, Y+10	; 0x0a
    242e:	ab 85       	ldd	r26, Y+11	; 0x0b
    2430:	bc 85       	ldd	r27, Y+12	; 0x0c
    2432:	80 95       	com	r24
    2434:	90 95       	com	r25
    2436:	a0 95       	com	r26
    2438:	b0 95       	com	r27
    243a:	49 81       	ldd	r20, Y+1	; 0x01
    243c:	5a 81       	ldd	r21, Y+2	; 0x02
    243e:	6b 81       	ldd	r22, Y+3	; 0x03
    2440:	7c 81       	ldd	r23, Y+4	; 0x04
    2442:	84 2b       	or	r24, r20
    2444:	95 2b       	or	r25, r21
    2446:	a6 2b       	or	r26, r22
    2448:	b7 2b       	or	r27, r23
    244a:	4d 81       	ldd	r20, Y+5	; 0x05
    244c:	5e 81       	ldd	r21, Y+6	; 0x06
    244e:	6f 81       	ldd	r22, Y+7	; 0x07
    2450:	78 85       	ldd	r23, Y+8	; 0x08
    2452:	84 27       	eor	r24, r20
    2454:	95 27       	eor	r25, r21
    2456:	a6 27       	eor	r26, r22
    2458:	b7 27       	eor	r27, r23
    245a:	f2 01       	movw	r30, r4
    245c:	e4 84       	ldd	r14, Z+12	; 0x0c
    245e:	f5 84       	ldd	r15, Z+13	; 0x0d
    2460:	06 85       	ldd	r16, Z+14	; 0x0e
    2462:	17 85       	ldd	r17, Z+15	; 0x0f
    2464:	bf 93       	push	r27
    2466:	af 93       	push	r26
    2468:	9f 93       	push	r25
    246a:	8f 93       	push	r24
    246c:	0f 2e       	mov	r0, r31
    246e:	f2 e9       	ldi	r31, 0x92	; 146
    2470:	8f 2e       	mov	r8, r31
    2472:	fc ec       	ldi	r31, 0xCC	; 204
    2474:	9f 2e       	mov	r9, r31
    2476:	fc e0       	ldi	r31, 0x0C	; 12
    2478:	af 2e       	mov	r10, r31
    247a:	ff e8       	ldi	r31, 0x8F	; 143
    247c:	bf 2e       	mov	r11, r31
    247e:	f0 2d       	mov	r31, r0
    2480:	0f 2e       	mov	r0, r31
    2482:	fa e0       	ldi	r31, 0x0A	; 10
    2484:	cf 2e       	mov	r12, r31
    2486:	d1 2c       	mov	r13, r1
    2488:	f0 2d       	mov	r31, r0
    248a:	9e 01       	movw	r18, r28
    248c:	27 5f       	subi	r18, 0xF7	; 247
    248e:	3f 4f       	sbci	r19, 0xFF	; 255
    2490:	ae 01       	movw	r20, r28
    2492:	4b 5f       	subi	r20, 0xFB	; 251
    2494:	5f 4f       	sbci	r21, 0xFF	; 255
    2496:	be 01       	movw	r22, r28
    2498:	6f 5f       	subi	r22, 0xFF	; 255
    249a:	7f 4f       	sbci	r23, 0xFF	; 255
    249c:	ce 01       	movw	r24, r28
    249e:	0d 96       	adiw	r24, 0x0d	; 13
    24a0:	0e 94 30 04 	call	0x860	; 0x860 <_Z10raund_funcPmS_S_S_mimm>
        raund_func(&c, &d, &a, &b, X[10], 15, T[54], FunI(d, a, b));
    24a4:	8d 81       	ldd	r24, Y+5	; 0x05
    24a6:	9e 81       	ldd	r25, Y+6	; 0x06
    24a8:	af 81       	ldd	r26, Y+7	; 0x07
    24aa:	b8 85       	ldd	r27, Y+8	; 0x08
    24ac:	80 95       	com	r24
    24ae:	90 95       	com	r25
    24b0:	a0 95       	com	r26
    24b2:	b0 95       	com	r27
    24b4:	4d 85       	ldd	r20, Y+13	; 0x0d
    24b6:	5e 85       	ldd	r21, Y+14	; 0x0e
    24b8:	6f 85       	ldd	r22, Y+15	; 0x0f
    24ba:	78 89       	ldd	r23, Y+16	; 0x10
    24bc:	84 2b       	or	r24, r20
    24be:	95 2b       	or	r25, r21
    24c0:	a6 2b       	or	r26, r22
    24c2:	b7 2b       	or	r27, r23
    24c4:	49 81       	ldd	r20, Y+1	; 0x01
    24c6:	5a 81       	ldd	r21, Y+2	; 0x02
    24c8:	6b 81       	ldd	r22, Y+3	; 0x03
    24ca:	7c 81       	ldd	r23, Y+4	; 0x04
    24cc:	84 27       	eor	r24, r20
    24ce:	95 27       	eor	r25, r21
    24d0:	a6 27       	eor	r26, r22
    24d2:	b7 27       	eor	r27, r23
    24d4:	f2 01       	movw	r30, r4
    24d6:	e0 a4       	ldd	r14, Z+40	; 0x28
    24d8:	f1 a4       	ldd	r15, Z+41	; 0x29
    24da:	02 a5       	ldd	r16, Z+42	; 0x2a
    24dc:	13 a5       	ldd	r17, Z+43	; 0x2b
    24de:	bf 93       	push	r27
    24e0:	af 93       	push	r26
    24e2:	9f 93       	push	r25
    24e4:	8f 93       	push	r24
    24e6:	0f 2e       	mov	r0, r31
    24e8:	fd e7       	ldi	r31, 0x7D	; 125
    24ea:	8f 2e       	mov	r8, r31
    24ec:	f4 ef       	ldi	r31, 0xF4	; 244
    24ee:	9f 2e       	mov	r9, r31
    24f0:	ff ee       	ldi	r31, 0xEF	; 239
    24f2:	af 2e       	mov	r10, r31
    24f4:	bb 24       	eor	r11, r11
    24f6:	ba 94       	dec	r11
    24f8:	f0 2d       	mov	r31, r0
    24fa:	0f 2e       	mov	r0, r31
    24fc:	ff e0       	ldi	r31, 0x0F	; 15
    24fe:	cf 2e       	mov	r12, r31
    2500:	d1 2c       	mov	r13, r1
    2502:	f0 2d       	mov	r31, r0
    2504:	9e 01       	movw	r18, r28
    2506:	2b 5f       	subi	r18, 0xFB	; 251
    2508:	3f 4f       	sbci	r19, 0xFF	; 255
    250a:	ae 01       	movw	r20, r28
    250c:	4f 5f       	subi	r20, 0xFF	; 255
    250e:	5f 4f       	sbci	r21, 0xFF	; 255
    2510:	be 01       	movw	r22, r28
    2512:	63 5f       	subi	r22, 0xF3	; 243
    2514:	7f 4f       	sbci	r23, 0xFF	; 255
    2516:	ce 01       	movw	r24, r28
    2518:	09 96       	adiw	r24, 0x09	; 9
    251a:	0e 94 30 04 	call	0x860	; 0x860 <_Z10raund_funcPmS_S_S_mimm>
        raund_func(&b, &c, &d, &a, X[1], 21, T[55],  FunI(c, d, a));
    251e:	89 81       	ldd	r24, Y+1	; 0x01
    2520:	9a 81       	ldd	r25, Y+2	; 0x02
    2522:	ab 81       	ldd	r26, Y+3	; 0x03
    2524:	bc 81       	ldd	r27, Y+4	; 0x04
    2526:	80 95       	com	r24
    2528:	90 95       	com	r25
    252a:	a0 95       	com	r26
    252c:	b0 95       	com	r27
    252e:	49 85       	ldd	r20, Y+9	; 0x09
    2530:	5a 85       	ldd	r21, Y+10	; 0x0a
    2532:	6b 85       	ldd	r22, Y+11	; 0x0b
    2534:	7c 85       	ldd	r23, Y+12	; 0x0c
    2536:	84 2b       	or	r24, r20
    2538:	95 2b       	or	r25, r21
    253a:	a6 2b       	or	r26, r22
    253c:	b7 2b       	or	r27, r23
    253e:	4d 85       	ldd	r20, Y+13	; 0x0d
    2540:	5e 85       	ldd	r21, Y+14	; 0x0e
    2542:	6f 85       	ldd	r22, Y+15	; 0x0f
    2544:	78 89       	ldd	r23, Y+16	; 0x10
    2546:	84 27       	eor	r24, r20
    2548:	95 27       	eor	r25, r21
    254a:	a6 27       	eor	r26, r22
    254c:	b7 27       	eor	r27, r23
    254e:	f2 01       	movw	r30, r4
    2550:	e4 80       	ldd	r14, Z+4	; 0x04
    2552:	f5 80       	ldd	r15, Z+5	; 0x05
    2554:	06 81       	ldd	r16, Z+6	; 0x06
    2556:	17 81       	ldd	r17, Z+7	; 0x07
    2558:	bf 93       	push	r27
    255a:	af 93       	push	r26
    255c:	9f 93       	push	r25
    255e:	8f 93       	push	r24
    2560:	0f 2e       	mov	r0, r31
    2562:	f1 ed       	ldi	r31, 0xD1	; 209
    2564:	8f 2e       	mov	r8, r31
    2566:	fd e5       	ldi	r31, 0x5D	; 93
    2568:	9f 2e       	mov	r9, r31
    256a:	f4 e8       	ldi	r31, 0x84	; 132
    256c:	af 2e       	mov	r10, r31
    256e:	f5 e8       	ldi	r31, 0x85	; 133
    2570:	bf 2e       	mov	r11, r31
    2572:	f0 2d       	mov	r31, r0
    2574:	0f 2e       	mov	r0, r31
    2576:	f5 e1       	ldi	r31, 0x15	; 21
    2578:	cf 2e       	mov	r12, r31
    257a:	d1 2c       	mov	r13, r1
    257c:	f0 2d       	mov	r31, r0
    257e:	9e 01       	movw	r18, r28
    2580:	2f 5f       	subi	r18, 0xFF	; 255
    2582:	3f 4f       	sbci	r19, 0xFF	; 255
    2584:	ae 01       	movw	r20, r28
    2586:	43 5f       	subi	r20, 0xF3	; 243
    2588:	5f 4f       	sbci	r21, 0xFF	; 255
    258a:	be 01       	movw	r22, r28
    258c:	67 5f       	subi	r22, 0xF7	; 247
    258e:	7f 4f       	sbci	r23, 0xFF	; 255
    2590:	ce 01       	movw	r24, r28
    2592:	05 96       	adiw	r24, 0x05	; 5
    2594:	0e 94 30 04 	call	0x860	; 0x860 <_Z10raund_funcPmS_S_S_mimm>

        raund_func(&a, &b, &c, &d, X[8], 6, T[56],   FunI(b, c, d));
    2598:	8d 85       	ldd	r24, Y+13	; 0x0d
    259a:	9e 85       	ldd	r25, Y+14	; 0x0e
    259c:	af 85       	ldd	r26, Y+15	; 0x0f
    259e:	b8 89       	ldd	r27, Y+16	; 0x10
    25a0:	80 95       	com	r24
    25a2:	90 95       	com	r25
    25a4:	a0 95       	com	r26
    25a6:	b0 95       	com	r27
    25a8:	4d 81       	ldd	r20, Y+5	; 0x05
    25aa:	5e 81       	ldd	r21, Y+6	; 0x06
    25ac:	6f 81       	ldd	r22, Y+7	; 0x07
    25ae:	78 85       	ldd	r23, Y+8	; 0x08
    25b0:	84 2b       	or	r24, r20
    25b2:	95 2b       	or	r25, r21
    25b4:	a6 2b       	or	r26, r22
    25b6:	b7 2b       	or	r27, r23
    25b8:	49 85       	ldd	r20, Y+9	; 0x09
    25ba:	5a 85       	ldd	r21, Y+10	; 0x0a
    25bc:	6b 85       	ldd	r22, Y+11	; 0x0b
    25be:	7c 85       	ldd	r23, Y+12	; 0x0c
    25c0:	84 27       	eor	r24, r20
    25c2:	95 27       	eor	r25, r21
    25c4:	a6 27       	eor	r26, r22
    25c6:	b7 27       	eor	r27, r23
    25c8:	f2 01       	movw	r30, r4
    25ca:	e0 a0       	ldd	r14, Z+32	; 0x20
    25cc:	f1 a0       	ldd	r15, Z+33	; 0x21
    25ce:	02 a1       	ldd	r16, Z+34	; 0x22
    25d0:	13 a1       	ldd	r17, Z+35	; 0x23
    25d2:	0f b6       	in	r0, 0x3f	; 63
    25d4:	f8 94       	cli
    25d6:	de bf       	out	0x3e, r29	; 62
    25d8:	0f be       	out	0x3f, r0	; 63
    25da:	cd bf       	out	0x3d, r28	; 61
    25dc:	bf 93       	push	r27
    25de:	af 93       	push	r26
    25e0:	9f 93       	push	r25
    25e2:	8f 93       	push	r24
    25e4:	0f 2e       	mov	r0, r31
    25e6:	ff e4       	ldi	r31, 0x4F	; 79
    25e8:	8f 2e       	mov	r8, r31
    25ea:	fe e7       	ldi	r31, 0x7E	; 126
    25ec:	9f 2e       	mov	r9, r31
    25ee:	f8 ea       	ldi	r31, 0xA8	; 168
    25f0:	af 2e       	mov	r10, r31
    25f2:	ff e6       	ldi	r31, 0x6F	; 111
    25f4:	bf 2e       	mov	r11, r31
    25f6:	f0 2d       	mov	r31, r0
    25f8:	0f 2e       	mov	r0, r31
    25fa:	f6 e0       	ldi	r31, 0x06	; 6
    25fc:	cf 2e       	mov	r12, r31
    25fe:	d1 2c       	mov	r13, r1
    2600:	f0 2d       	mov	r31, r0
    2602:	9e 01       	movw	r18, r28
    2604:	23 5f       	subi	r18, 0xF3	; 243
    2606:	3f 4f       	sbci	r19, 0xFF	; 255
    2608:	ae 01       	movw	r20, r28
    260a:	47 5f       	subi	r20, 0xF7	; 247
    260c:	5f 4f       	sbci	r21, 0xFF	; 255
    260e:	be 01       	movw	r22, r28
    2610:	6b 5f       	subi	r22, 0xFB	; 251
    2612:	7f 4f       	sbci	r23, 0xFF	; 255
    2614:	ce 01       	movw	r24, r28
    2616:	01 96       	adiw	r24, 0x01	; 1
    2618:	0e 94 30 04 	call	0x860	; 0x860 <_Z10raund_funcPmS_S_S_mimm>
        raund_func(&d, &a, &b, &c, X[15], 10, T[57], FunI(a, b, c));
    261c:	89 85       	ldd	r24, Y+9	; 0x09
    261e:	9a 85       	ldd	r25, Y+10	; 0x0a
    2620:	ab 85       	ldd	r26, Y+11	; 0x0b
    2622:	bc 85       	ldd	r27, Y+12	; 0x0c
    2624:	80 95       	com	r24
    2626:	90 95       	com	r25
    2628:	a0 95       	com	r26
    262a:	b0 95       	com	r27
    262c:	49 81       	ldd	r20, Y+1	; 0x01
    262e:	5a 81       	ldd	r21, Y+2	; 0x02
    2630:	6b 81       	ldd	r22, Y+3	; 0x03
    2632:	7c 81       	ldd	r23, Y+4	; 0x04
    2634:	84 2b       	or	r24, r20
    2636:	95 2b       	or	r25, r21
    2638:	a6 2b       	or	r26, r22
    263a:	b7 2b       	or	r27, r23
    263c:	4d 81       	ldd	r20, Y+5	; 0x05
    263e:	5e 81       	ldd	r21, Y+6	; 0x06
    2640:	6f 81       	ldd	r22, Y+7	; 0x07
    2642:	78 85       	ldd	r23, Y+8	; 0x08
    2644:	84 27       	eor	r24, r20
    2646:	95 27       	eor	r25, r21
    2648:	a6 27       	eor	r26, r22
    264a:	b7 27       	eor	r27, r23
    264c:	f2 01       	movw	r30, r4
    264e:	e4 ac       	ldd	r14, Z+60	; 0x3c
    2650:	f5 ac       	ldd	r15, Z+61	; 0x3d
    2652:	06 ad       	ldd	r16, Z+62	; 0x3e
    2654:	17 ad       	ldd	r17, Z+63	; 0x3f
    2656:	bf 93       	push	r27
    2658:	af 93       	push	r26
    265a:	9f 93       	push	r25
    265c:	8f 93       	push	r24
    265e:	0f 2e       	mov	r0, r31
    2660:	f0 ee       	ldi	r31, 0xE0	; 224
    2662:	8f 2e       	mov	r8, r31
    2664:	f6 ee       	ldi	r31, 0xE6	; 230
    2666:	9f 2e       	mov	r9, r31
    2668:	fc e2       	ldi	r31, 0x2C	; 44
    266a:	af 2e       	mov	r10, r31
    266c:	fe ef       	ldi	r31, 0xFE	; 254
    266e:	bf 2e       	mov	r11, r31
    2670:	f0 2d       	mov	r31, r0
    2672:	0f 2e       	mov	r0, r31
    2674:	fa e0       	ldi	r31, 0x0A	; 10
    2676:	cf 2e       	mov	r12, r31
    2678:	d1 2c       	mov	r13, r1
    267a:	f0 2d       	mov	r31, r0
    267c:	9e 01       	movw	r18, r28
    267e:	27 5f       	subi	r18, 0xF7	; 247
    2680:	3f 4f       	sbci	r19, 0xFF	; 255
    2682:	ae 01       	movw	r20, r28
    2684:	4b 5f       	subi	r20, 0xFB	; 251
    2686:	5f 4f       	sbci	r21, 0xFF	; 255
    2688:	be 01       	movw	r22, r28
    268a:	6f 5f       	subi	r22, 0xFF	; 255
    268c:	7f 4f       	sbci	r23, 0xFF	; 255
    268e:	ce 01       	movw	r24, r28
    2690:	0d 96       	adiw	r24, 0x0d	; 13
    2692:	0e 94 30 04 	call	0x860	; 0x860 <_Z10raund_funcPmS_S_S_mimm>
        raund_func(&c, &d, &a, &b, X[6], 15, T[58],  FunI(d, a, b));
    2696:	8d 81       	ldd	r24, Y+5	; 0x05
    2698:	9e 81       	ldd	r25, Y+6	; 0x06
    269a:	af 81       	ldd	r26, Y+7	; 0x07
    269c:	b8 85       	ldd	r27, Y+8	; 0x08
    269e:	80 95       	com	r24
    26a0:	90 95       	com	r25
    26a2:	a0 95       	com	r26
    26a4:	b0 95       	com	r27
    26a6:	4d 85       	ldd	r20, Y+13	; 0x0d
    26a8:	5e 85       	ldd	r21, Y+14	; 0x0e
    26aa:	6f 85       	ldd	r22, Y+15	; 0x0f
    26ac:	78 89       	ldd	r23, Y+16	; 0x10
    26ae:	84 2b       	or	r24, r20
    26b0:	95 2b       	or	r25, r21
    26b2:	a6 2b       	or	r26, r22
    26b4:	b7 2b       	or	r27, r23
    26b6:	49 81       	ldd	r20, Y+1	; 0x01
    26b8:	5a 81       	ldd	r21, Y+2	; 0x02
    26ba:	6b 81       	ldd	r22, Y+3	; 0x03
    26bc:	7c 81       	ldd	r23, Y+4	; 0x04
    26be:	84 27       	eor	r24, r20
    26c0:	95 27       	eor	r25, r21
    26c2:	a6 27       	eor	r26, r22
    26c4:	b7 27       	eor	r27, r23
    26c6:	f2 01       	movw	r30, r4
    26c8:	e0 8c       	ldd	r14, Z+24	; 0x18
    26ca:	f1 8c       	ldd	r15, Z+25	; 0x19
    26cc:	02 8d       	ldd	r16, Z+26	; 0x1a
    26ce:	13 8d       	ldd	r17, Z+27	; 0x1b
    26d0:	bf 93       	push	r27
    26d2:	af 93       	push	r26
    26d4:	9f 93       	push	r25
    26d6:	8f 93       	push	r24
    26d8:	0f 2e       	mov	r0, r31
    26da:	f4 e1       	ldi	r31, 0x14	; 20
    26dc:	8f 2e       	mov	r8, r31
    26de:	f3 e4       	ldi	r31, 0x43	; 67
    26e0:	9f 2e       	mov	r9, r31
    26e2:	aa 24       	eor	r10, r10
    26e4:	a3 94       	inc	r10
    26e6:	f3 ea       	ldi	r31, 0xA3	; 163
    26e8:	bf 2e       	mov	r11, r31
    26ea:	f0 2d       	mov	r31, r0
    26ec:	0f 2e       	mov	r0, r31
    26ee:	ff e0       	ldi	r31, 0x0F	; 15
    26f0:	cf 2e       	mov	r12, r31
    26f2:	d1 2c       	mov	r13, r1
    26f4:	f0 2d       	mov	r31, r0
    26f6:	9e 01       	movw	r18, r28
    26f8:	2b 5f       	subi	r18, 0xFB	; 251
    26fa:	3f 4f       	sbci	r19, 0xFF	; 255
    26fc:	ae 01       	movw	r20, r28
    26fe:	4f 5f       	subi	r20, 0xFF	; 255
    2700:	5f 4f       	sbci	r21, 0xFF	; 255
    2702:	be 01       	movw	r22, r28
    2704:	63 5f       	subi	r22, 0xF3	; 243
    2706:	7f 4f       	sbci	r23, 0xFF	; 255
    2708:	ce 01       	movw	r24, r28
    270a:	09 96       	adiw	r24, 0x09	; 9
    270c:	0e 94 30 04 	call	0x860	; 0x860 <_Z10raund_funcPmS_S_S_mimm>
        raund_func(&b, &c, &d, &a, X[13], 21, T[59], FunI(c, d, a));
    2710:	89 81       	ldd	r24, Y+1	; 0x01
    2712:	9a 81       	ldd	r25, Y+2	; 0x02
    2714:	ab 81       	ldd	r26, Y+3	; 0x03
    2716:	bc 81       	ldd	r27, Y+4	; 0x04
    2718:	80 95       	com	r24
    271a:	90 95       	com	r25
    271c:	a0 95       	com	r26
    271e:	b0 95       	com	r27
    2720:	49 85       	ldd	r20, Y+9	; 0x09
    2722:	5a 85       	ldd	r21, Y+10	; 0x0a
    2724:	6b 85       	ldd	r22, Y+11	; 0x0b
    2726:	7c 85       	ldd	r23, Y+12	; 0x0c
    2728:	84 2b       	or	r24, r20
    272a:	95 2b       	or	r25, r21
    272c:	a6 2b       	or	r26, r22
    272e:	b7 2b       	or	r27, r23
    2730:	4d 85       	ldd	r20, Y+13	; 0x0d
    2732:	5e 85       	ldd	r21, Y+14	; 0x0e
    2734:	6f 85       	ldd	r22, Y+15	; 0x0f
    2736:	78 89       	ldd	r23, Y+16	; 0x10
    2738:	84 27       	eor	r24, r20
    273a:	95 27       	eor	r25, r21
    273c:	a6 27       	eor	r26, r22
    273e:	b7 27       	eor	r27, r23
    2740:	f2 01       	movw	r30, r4
    2742:	e4 a8       	ldd	r14, Z+52	; 0x34
    2744:	f5 a8       	ldd	r15, Z+53	; 0x35
    2746:	06 a9       	ldd	r16, Z+54	; 0x36
    2748:	17 a9       	ldd	r17, Z+55	; 0x37
    274a:	bf 93       	push	r27
    274c:	af 93       	push	r26
    274e:	9f 93       	push	r25
    2750:	8f 93       	push	r24
    2752:	0f 2e       	mov	r0, r31
    2754:	f1 ea       	ldi	r31, 0xA1	; 161
    2756:	8f 2e       	mov	r8, r31
    2758:	f1 e1       	ldi	r31, 0x11	; 17
    275a:	9f 2e       	mov	r9, r31
    275c:	f8 e0       	ldi	r31, 0x08	; 8
    275e:	af 2e       	mov	r10, r31
    2760:	fe e4       	ldi	r31, 0x4E	; 78
    2762:	bf 2e       	mov	r11, r31
    2764:	f0 2d       	mov	r31, r0
    2766:	0f 2e       	mov	r0, r31
    2768:	f5 e1       	ldi	r31, 0x15	; 21
    276a:	cf 2e       	mov	r12, r31
    276c:	d1 2c       	mov	r13, r1
    276e:	f0 2d       	mov	r31, r0
    2770:	9e 01       	movw	r18, r28
    2772:	2f 5f       	subi	r18, 0xFF	; 255
    2774:	3f 4f       	sbci	r19, 0xFF	; 255
    2776:	ae 01       	movw	r20, r28
    2778:	43 5f       	subi	r20, 0xF3	; 243
    277a:	5f 4f       	sbci	r21, 0xFF	; 255
    277c:	be 01       	movw	r22, r28
    277e:	67 5f       	subi	r22, 0xF7	; 247
    2780:	7f 4f       	sbci	r23, 0xFF	; 255
    2782:	ce 01       	movw	r24, r28
    2784:	05 96       	adiw	r24, 0x05	; 5
    2786:	0e 94 30 04 	call	0x860	; 0x860 <_Z10raund_funcPmS_S_S_mimm>

        raund_func(&a, &b, &c, &d, X[4], 6, T[60],   FunI(b, c, d));
    278a:	8d 85       	ldd	r24, Y+13	; 0x0d
    278c:	9e 85       	ldd	r25, Y+14	; 0x0e
    278e:	af 85       	ldd	r26, Y+15	; 0x0f
    2790:	b8 89       	ldd	r27, Y+16	; 0x10
    2792:	80 95       	com	r24
    2794:	90 95       	com	r25
    2796:	a0 95       	com	r26
    2798:	b0 95       	com	r27
    279a:	4d 81       	ldd	r20, Y+5	; 0x05
    279c:	5e 81       	ldd	r21, Y+6	; 0x06
    279e:	6f 81       	ldd	r22, Y+7	; 0x07
    27a0:	78 85       	ldd	r23, Y+8	; 0x08
    27a2:	84 2b       	or	r24, r20
    27a4:	95 2b       	or	r25, r21
    27a6:	a6 2b       	or	r26, r22
    27a8:	b7 2b       	or	r27, r23
    27aa:	49 85       	ldd	r20, Y+9	; 0x09
    27ac:	5a 85       	ldd	r21, Y+10	; 0x0a
    27ae:	6b 85       	ldd	r22, Y+11	; 0x0b
    27b0:	7c 85       	ldd	r23, Y+12	; 0x0c
    27b2:	84 27       	eor	r24, r20
    27b4:	95 27       	eor	r25, r21
    27b6:	a6 27       	eor	r26, r22
    27b8:	b7 27       	eor	r27, r23
    27ba:	f2 01       	movw	r30, r4
    27bc:	e0 88       	ldd	r14, Z+16	; 0x10
    27be:	f1 88       	ldd	r15, Z+17	; 0x11
    27c0:	02 89       	ldd	r16, Z+18	; 0x12
    27c2:	13 89       	ldd	r17, Z+19	; 0x13
    27c4:	bf 93       	push	r27
    27c6:	af 93       	push	r26
    27c8:	9f 93       	push	r25
    27ca:	8f 93       	push	r24
    27cc:	0f 2e       	mov	r0, r31
    27ce:	f2 e8       	ldi	r31, 0x82	; 130
    27d0:	8f 2e       	mov	r8, r31
    27d2:	fe e7       	ldi	r31, 0x7E	; 126
    27d4:	9f 2e       	mov	r9, r31
    27d6:	f3 e5       	ldi	r31, 0x53	; 83
    27d8:	af 2e       	mov	r10, r31
    27da:	f7 ef       	ldi	r31, 0xF7	; 247
    27dc:	bf 2e       	mov	r11, r31
    27de:	f0 2d       	mov	r31, r0
    27e0:	0f 2e       	mov	r0, r31
    27e2:	f6 e0       	ldi	r31, 0x06	; 6
    27e4:	cf 2e       	mov	r12, r31
    27e6:	d1 2c       	mov	r13, r1
    27e8:	f0 2d       	mov	r31, r0
    27ea:	9e 01       	movw	r18, r28
    27ec:	23 5f       	subi	r18, 0xF3	; 243
    27ee:	3f 4f       	sbci	r19, 0xFF	; 255
    27f0:	ae 01       	movw	r20, r28
    27f2:	47 5f       	subi	r20, 0xF7	; 247
    27f4:	5f 4f       	sbci	r21, 0xFF	; 255
    27f6:	be 01       	movw	r22, r28
    27f8:	6b 5f       	subi	r22, 0xFB	; 251
    27fa:	7f 4f       	sbci	r23, 0xFF	; 255
    27fc:	ce 01       	movw	r24, r28
    27fe:	01 96       	adiw	r24, 0x01	; 1
    2800:	0e 94 30 04 	call	0x860	; 0x860 <_Z10raund_funcPmS_S_S_mimm>
        raund_func(&d, &a, &b, &c, X[11], 10, T[61], FunI(a, b, c));
    2804:	89 85       	ldd	r24, Y+9	; 0x09
    2806:	9a 85       	ldd	r25, Y+10	; 0x0a
    2808:	ab 85       	ldd	r26, Y+11	; 0x0b
    280a:	bc 85       	ldd	r27, Y+12	; 0x0c
    280c:	80 95       	com	r24
    280e:	90 95       	com	r25
    2810:	a0 95       	com	r26
    2812:	b0 95       	com	r27
    2814:	49 81       	ldd	r20, Y+1	; 0x01
    2816:	5a 81       	ldd	r21, Y+2	; 0x02
    2818:	6b 81       	ldd	r22, Y+3	; 0x03
    281a:	7c 81       	ldd	r23, Y+4	; 0x04
    281c:	84 2b       	or	r24, r20
    281e:	95 2b       	or	r25, r21
    2820:	a6 2b       	or	r26, r22
    2822:	b7 2b       	or	r27, r23
    2824:	4d 81       	ldd	r20, Y+5	; 0x05
    2826:	5e 81       	ldd	r21, Y+6	; 0x06
    2828:	6f 81       	ldd	r22, Y+7	; 0x07
    282a:	78 85       	ldd	r23, Y+8	; 0x08
    282c:	84 27       	eor	r24, r20
    282e:	95 27       	eor	r25, r21
    2830:	a6 27       	eor	r26, r22
    2832:	b7 27       	eor	r27, r23
    2834:	f2 01       	movw	r30, r4
    2836:	e4 a4       	ldd	r14, Z+44	; 0x2c
    2838:	f5 a4       	ldd	r15, Z+45	; 0x2d
    283a:	06 a5       	ldd	r16, Z+46	; 0x2e
    283c:	17 a5       	ldd	r17, Z+47	; 0x2f
    283e:	bf 93       	push	r27
    2840:	af 93       	push	r26
    2842:	9f 93       	push	r25
    2844:	8f 93       	push	r24
    2846:	0f 2e       	mov	r0, r31
    2848:	f5 e3       	ldi	r31, 0x35	; 53
    284a:	8f 2e       	mov	r8, r31
    284c:	f2 ef       	ldi	r31, 0xF2	; 242
    284e:	9f 2e       	mov	r9, r31
    2850:	fa e3       	ldi	r31, 0x3A	; 58
    2852:	af 2e       	mov	r10, r31
    2854:	fd eb       	ldi	r31, 0xBD	; 189
    2856:	bf 2e       	mov	r11, r31
    2858:	f0 2d       	mov	r31, r0
    285a:	0f 2e       	mov	r0, r31
    285c:	fa e0       	ldi	r31, 0x0A	; 10
    285e:	cf 2e       	mov	r12, r31
    2860:	d1 2c       	mov	r13, r1
    2862:	f0 2d       	mov	r31, r0
    2864:	9e 01       	movw	r18, r28
    2866:	27 5f       	subi	r18, 0xF7	; 247
    2868:	3f 4f       	sbci	r19, 0xFF	; 255
    286a:	ae 01       	movw	r20, r28
    286c:	4b 5f       	subi	r20, 0xFB	; 251
    286e:	5f 4f       	sbci	r21, 0xFF	; 255
    2870:	be 01       	movw	r22, r28
    2872:	6f 5f       	subi	r22, 0xFF	; 255
    2874:	7f 4f       	sbci	r23, 0xFF	; 255
    2876:	ce 01       	movw	r24, r28
    2878:	0d 96       	adiw	r24, 0x0d	; 13
    287a:	0e 94 30 04 	call	0x860	; 0x860 <_Z10raund_funcPmS_S_S_mimm>
        raund_func(&c, &d, &a, &b, X[2], 15, T[62],  FunI(d, a, b));
    287e:	8d 81       	ldd	r24, Y+5	; 0x05
    2880:	9e 81       	ldd	r25, Y+6	; 0x06
    2882:	af 81       	ldd	r26, Y+7	; 0x07
    2884:	b8 85       	ldd	r27, Y+8	; 0x08
    2886:	80 95       	com	r24
    2888:	90 95       	com	r25
    288a:	a0 95       	com	r26
    288c:	b0 95       	com	r27
    288e:	4d 85       	ldd	r20, Y+13	; 0x0d
    2890:	5e 85       	ldd	r21, Y+14	; 0x0e
    2892:	6f 85       	ldd	r22, Y+15	; 0x0f
    2894:	78 89       	ldd	r23, Y+16	; 0x10
    2896:	84 2b       	or	r24, r20
    2898:	95 2b       	or	r25, r21
    289a:	a6 2b       	or	r26, r22
    289c:	b7 2b       	or	r27, r23
    289e:	49 81       	ldd	r20, Y+1	; 0x01
    28a0:	5a 81       	ldd	r21, Y+2	; 0x02
    28a2:	6b 81       	ldd	r22, Y+3	; 0x03
    28a4:	7c 81       	ldd	r23, Y+4	; 0x04
    28a6:	84 27       	eor	r24, r20
    28a8:	95 27       	eor	r25, r21
    28aa:	a6 27       	eor	r26, r22
    28ac:	b7 27       	eor	r27, r23
    28ae:	f2 01       	movw	r30, r4
    28b0:	e0 84       	ldd	r14, Z+8	; 0x08
    28b2:	f1 84       	ldd	r15, Z+9	; 0x09
    28b4:	02 85       	ldd	r16, Z+10	; 0x0a
    28b6:	13 85       	ldd	r17, Z+11	; 0x0b
    28b8:	bf 93       	push	r27
    28ba:	af 93       	push	r26
    28bc:	9f 93       	push	r25
    28be:	8f 93       	push	r24
    28c0:	0f 2e       	mov	r0, r31
    28c2:	fb eb       	ldi	r31, 0xBB	; 187
    28c4:	8f 2e       	mov	r8, r31
    28c6:	f2 ed       	ldi	r31, 0xD2	; 210
    28c8:	9f 2e       	mov	r9, r31
    28ca:	f7 ed       	ldi	r31, 0xD7	; 215
    28cc:	af 2e       	mov	r10, r31
    28ce:	fa e2       	ldi	r31, 0x2A	; 42
    28d0:	bf 2e       	mov	r11, r31
    28d2:	f0 2d       	mov	r31, r0
    28d4:	0f 2e       	mov	r0, r31
    28d6:	ff e0       	ldi	r31, 0x0F	; 15
    28d8:	cf 2e       	mov	r12, r31
    28da:	d1 2c       	mov	r13, r1
    28dc:	f0 2d       	mov	r31, r0
    28de:	9e 01       	movw	r18, r28
    28e0:	2b 5f       	subi	r18, 0xFB	; 251
    28e2:	3f 4f       	sbci	r19, 0xFF	; 255
    28e4:	ae 01       	movw	r20, r28
    28e6:	4f 5f       	subi	r20, 0xFF	; 255
    28e8:	5f 4f       	sbci	r21, 0xFF	; 255
    28ea:	be 01       	movw	r22, r28
    28ec:	63 5f       	subi	r22, 0xF3	; 243
    28ee:	7f 4f       	sbci	r23, 0xFF	; 255
    28f0:	ce 01       	movw	r24, r28
    28f2:	09 96       	adiw	r24, 0x09	; 9
    28f4:	0e 94 30 04 	call	0x860	; 0x860 <_Z10raund_funcPmS_S_S_mimm>
        raund_func(&b, &c, &d, &a, X[9], 21, T[63],  FunI(c, d, a));
    28f8:	89 81       	ldd	r24, Y+1	; 0x01
    28fa:	9a 81       	ldd	r25, Y+2	; 0x02
    28fc:	ab 81       	ldd	r26, Y+3	; 0x03
    28fe:	bc 81       	ldd	r27, Y+4	; 0x04
    2900:	80 95       	com	r24
    2902:	90 95       	com	r25
    2904:	a0 95       	com	r26
    2906:	b0 95       	com	r27
    2908:	49 85       	ldd	r20, Y+9	; 0x09
    290a:	5a 85       	ldd	r21, Y+10	; 0x0a
    290c:	6b 85       	ldd	r22, Y+11	; 0x0b
    290e:	7c 85       	ldd	r23, Y+12	; 0x0c
    2910:	84 2b       	or	r24, r20
    2912:	95 2b       	or	r25, r21
    2914:	a6 2b       	or	r26, r22
    2916:	b7 2b       	or	r27, r23
    2918:	4d 85       	ldd	r20, Y+13	; 0x0d
    291a:	5e 85       	ldd	r21, Y+14	; 0x0e
    291c:	6f 85       	ldd	r22, Y+15	; 0x0f
    291e:	78 89       	ldd	r23, Y+16	; 0x10
    2920:	84 27       	eor	r24, r20
    2922:	95 27       	eor	r25, r21
    2924:	a6 27       	eor	r26, r22
    2926:	b7 27       	eor	r27, r23
    2928:	f2 01       	movw	r30, r4
    292a:	e4 a0       	ldd	r14, Z+36	; 0x24
    292c:	f5 a0       	ldd	r15, Z+37	; 0x25
    292e:	06 a1       	ldd	r16, Z+38	; 0x26
    2930:	17 a1       	ldd	r17, Z+39	; 0x27
    2932:	bf 93       	push	r27
    2934:	af 93       	push	r26
    2936:	9f 93       	push	r25
    2938:	8f 93       	push	r24
    293a:	0f 2e       	mov	r0, r31
    293c:	f1 e9       	ldi	r31, 0x91	; 145
    293e:	8f 2e       	mov	r8, r31
    2940:	f3 ed       	ldi	r31, 0xD3	; 211
    2942:	9f 2e       	mov	r9, r31
    2944:	f6 e8       	ldi	r31, 0x86	; 134
    2946:	af 2e       	mov	r10, r31
    2948:	fb ee       	ldi	r31, 0xEB	; 235
    294a:	bf 2e       	mov	r11, r31
    294c:	f0 2d       	mov	r31, r0
    294e:	0f 2e       	mov	r0, r31
    2950:	f5 e1       	ldi	r31, 0x15	; 21
    2952:	cf 2e       	mov	r12, r31
    2954:	d1 2c       	mov	r13, r1
    2956:	f0 2d       	mov	r31, r0
    2958:	9e 01       	movw	r18, r28
    295a:	2f 5f       	subi	r18, 0xFF	; 255
    295c:	3f 4f       	sbci	r19, 0xFF	; 255
    295e:	ae 01       	movw	r20, r28
    2960:	43 5f       	subi	r20, 0xF3	; 243
    2962:	5f 4f       	sbci	r21, 0xFF	; 255
    2964:	be 01       	movw	r22, r28
    2966:	67 5f       	subi	r22, 0xF7	; 247
    2968:	7f 4f       	sbci	r23, 0xFF	; 255
    296a:	ce 01       	movw	r24, r28
    296c:	05 96       	adiw	r24, 0x05	; 5
    296e:	0e 94 30 04 	call	0x860	; 0x860 <_Z10raund_funcPmS_S_S_mimm>

        a += a_tmp;
    2972:	89 81       	ldd	r24, Y+1	; 0x01
    2974:	9a 81       	ldd	r25, Y+2	; 0x02
    2976:	ab 81       	ldd	r26, Y+3	; 0x03
    2978:	bc 81       	ldd	r27, Y+4	; 0x04
    297a:	2f a1       	ldd	r18, Y+39	; 0x27
    297c:	38 a5       	ldd	r19, Y+40	; 0x28
    297e:	49 a5       	ldd	r20, Y+41	; 0x29
    2980:	5a a5       	ldd	r21, Y+42	; 0x2a
    2982:	82 0f       	add	r24, r18
    2984:	93 1f       	adc	r25, r19
    2986:	a4 1f       	adc	r26, r20
    2988:	b5 1f       	adc	r27, r21
    298a:	89 83       	std	Y+1, r24	; 0x01
    298c:	9a 83       	std	Y+2, r25	; 0x02
    298e:	ab 83       	std	Y+3, r26	; 0x03
    2990:	bc 83       	std	Y+4, r27	; 0x04
        b += b_tmp;
    2992:	8d 81       	ldd	r24, Y+5	; 0x05
    2994:	9e 81       	ldd	r25, Y+6	; 0x06
    2996:	af 81       	ldd	r26, Y+7	; 0x07
    2998:	b8 85       	ldd	r27, Y+8	; 0x08
    299a:	2b a5       	ldd	r18, Y+43	; 0x2b
    299c:	3c a5       	ldd	r19, Y+44	; 0x2c
    299e:	4d a5       	ldd	r20, Y+45	; 0x2d
    29a0:	5e a5       	ldd	r21, Y+46	; 0x2e
    29a2:	82 0f       	add	r24, r18
    29a4:	93 1f       	adc	r25, r19
    29a6:	a4 1f       	adc	r26, r20
    29a8:	b5 1f       	adc	r27, r21
    29aa:	8d 83       	std	Y+5, r24	; 0x05
    29ac:	9e 83       	std	Y+6, r25	; 0x06
    29ae:	af 83       	std	Y+7, r26	; 0x07
    29b0:	b8 87       	std	Y+8, r27	; 0x08
        c += c_tmp;
    29b2:	89 85       	ldd	r24, Y+9	; 0x09
    29b4:	9a 85       	ldd	r25, Y+10	; 0x0a
    29b6:	ab 85       	ldd	r26, Y+11	; 0x0b
    29b8:	bc 85       	ldd	r27, Y+12	; 0x0c
    29ba:	2f a5       	ldd	r18, Y+47	; 0x2f
    29bc:	38 a9       	ldd	r19, Y+48	; 0x30
    29be:	49 a9       	ldd	r20, Y+49	; 0x31
    29c0:	5a a9       	ldd	r21, Y+50	; 0x32
    29c2:	82 0f       	add	r24, r18
    29c4:	93 1f       	adc	r25, r19
    29c6:	a4 1f       	adc	r26, r20
    29c8:	b5 1f       	adc	r27, r21
    29ca:	89 87       	std	Y+9, r24	; 0x09
    29cc:	9a 87       	std	Y+10, r25	; 0x0a
    29ce:	ab 87       	std	Y+11, r26	; 0x0b
        d += d_tmp;
    29d0:	bc 87       	std	Y+12, r27	; 0x0c
    29d2:	8d 85       	ldd	r24, Y+13	; 0x0d
    29d4:	9e 85       	ldd	r25, Y+14	; 0x0e
    29d6:	af 85       	ldd	r26, Y+15	; 0x0f
    29d8:	b8 89       	ldd	r27, Y+16	; 0x10
    29da:	2b a9       	ldd	r18, Y+51	; 0x33
    29dc:	3c a9       	ldd	r19, Y+52	; 0x34
    29de:	4d a9       	ldd	r20, Y+53	; 0x35
    29e0:	5e a9       	ldd	r21, Y+54	; 0x36
    29e2:	82 0f       	add	r24, r18
    29e4:	93 1f       	adc	r25, r19
    29e6:	a4 1f       	adc	r26, r20
    29e8:	b5 1f       	adc	r27, r21
    29ea:	8d 87       	std	Y+13, r24	; 0x0d
    29ec:	9e 87       	std	Y+14, r25	; 0x0e
		
		free(X);
    29ee:	af 87       	std	Y+15, r26	; 0x0f
    29f0:	b8 8b       	std	Y+16, r27	; 0x10
    29f2:	0f b6       	in	r0, 0x3f	; 63
    29f4:	f8 94       	cli
    29f6:	de bf       	out	0x3e, r29	; 62
    29f8:	0f be       	out	0x3f, r0	; 63
    29fa:	cd bf       	out	0x3d, r28	; 61
    29fc:	c2 01       	movw	r24, r4
    //printf("b:  %x\n", b);
    //printf("c:  %x\n", c);
    //printf("d:  %x\n", d);
    ////////////////////////////////

    for(int _start = 0, _end = 64; _start < new_lenght; _start+=64, _end+=64)
    29fe:	d4 d1       	rcall	.+936    	; 0x2da8 <free>
    2a00:	8d a1       	ldd	r24, Y+37	; 0x25
    2a02:	9e a1       	ldd	r25, Y+38	; 0x26
    2a04:	80 5c       	subi	r24, 0xC0	; 192
    2a06:	9f 4f       	sbci	r25, 0xFF	; 255
    2a08:	9e a3       	std	Y+38, r25	; 0x26
    2a0a:	8d a3       	std	Y+37, r24	; 0x25
    2a0c:	90 e4       	ldi	r25, 0x40	; 64
    2a0e:	29 0e       	add	r2, r25
    2a10:	31 1c       	adc	r3, r1
    2a12:	0c 94 bf 04 	jmp	0x97e	; 0x97e <_Z11gethash_md5Phi+0x6a>
        c += c_tmp;
        d += d_tmp;
		
		free(X);
    }
	free(stream);
    2a16:	c3 01       	movw	r24, r6
    2a18:	c7 d1       	rcall	.+910    	; 0x2da8 <free>
	
	uint8_t HASH_MD5[16];
    int s;
    //USART_TX(0x0d);//переход в начало строки
    //USART_TX(0x0a);//переход на новую строку
	for(int i = 0; i < 16; i++)
    2a1a:	80 e0       	ldi	r24, 0x00	; 0
    2a1c:	90 e0       	ldi	r25, 0x00	; 0
    2a1e:	80 31       	cpi	r24, 0x10	; 16
    2a20:	91 05       	cpc	r25, r1
    2a22:	0c f0       	brlt	.+2      	; 0x2a26 <__stack+0x827>
    2a24:	85 c0       	rjmp	.+266    	; 0x2b30 <__stack+0x931>
    {
        HASH_MD5[i] = 0;
    2a26:	e1 e1       	ldi	r30, 0x11	; 17
    2a28:	f0 e0       	ldi	r31, 0x00	; 0
    2a2a:	ec 0f       	add	r30, r28
    2a2c:	fd 1f       	adc	r31, r29
    2a2e:	e8 0f       	add	r30, r24
    2a30:	f9 1f       	adc	r31, r25
    2a32:	10 82       	st	Z, r1
        if( i < 4 )
    2a34:	84 30       	cpi	r24, 0x04	; 4
    2a36:	91 05       	cpc	r25, r1
    2a38:	cc f4       	brge	.+50     	; 0x2a6c <__stack+0x86d>
        {
            s = i;
            HASH_MD5[i] = a >> (i * 8);
    2a3a:	49 81       	ldd	r20, Y+1	; 0x01
    2a3c:	5a 81       	ldd	r21, Y+2	; 0x02
    2a3e:	6b 81       	ldd	r22, Y+3	; 0x03
    2a40:	7c 81       	ldd	r23, Y+4	; 0x04
    2a42:	9c 01       	movw	r18, r24
    2a44:	22 0f       	add	r18, r18
    2a46:	33 1f       	adc	r19, r19
    2a48:	22 0f       	add	r18, r18
    2a4a:	33 1f       	adc	r19, r19
    2a4c:	22 0f       	add	r18, r18
    2a4e:	33 1f       	adc	r19, r19
    2a50:	04 c0       	rjmp	.+8      	; 0x2a5a <__stack+0x85b>
    2a52:	76 95       	lsr	r23
    2a54:	67 95       	ror	r22
    2a56:	57 95       	ror	r21
    2a58:	47 95       	ror	r20
    2a5a:	2a 95       	dec	r18
    2a5c:	d2 f7       	brpl	.-12     	; 0x2a52 <__stack+0x853>
    2a5e:	e1 e1       	ldi	r30, 0x11	; 17
    2a60:	f0 e0       	ldi	r31, 0x00	; 0
    2a62:	ec 0f       	add	r30, r28
    2a64:	fd 1f       	adc	r31, r29
    2a66:	e8 0f       	add	r30, r24
    2a68:	f9 1f       	adc	r31, r25
    2a6a:	40 83       	st	Z, r20
        }
        if( i < 8 && i >= 4)
    2a6c:	9c 01       	movw	r18, r24
    2a6e:	ac 01       	movw	r20, r24
    2a70:	44 50       	subi	r20, 0x04	; 4
    2a72:	51 09       	sbc	r21, r1
    2a74:	44 30       	cpi	r20, 0x04	; 4
    2a76:	51 05       	cpc	r21, r1
    2a78:	c8 f4       	brcc	.+50     	; 0x2aac <__stack+0x8ad>
        {
            s = i - 4;
    2a7a:	fa 01       	movw	r30, r20
            HASH_MD5[i] = b >> (s * 8);
    2a7c:	ee 0f       	add	r30, r30
    2a7e:	ff 1f       	adc	r31, r31
    2a80:	ee 0f       	add	r30, r30
    2a82:	ff 1f       	adc	r31, r31
    2a84:	ee 0f       	add	r30, r30
    2a86:	ff 1f       	adc	r31, r31
    2a88:	4d 81       	ldd	r20, Y+5	; 0x05
    2a8a:	5e 81       	ldd	r21, Y+6	; 0x06
    2a8c:	6f 81       	ldd	r22, Y+7	; 0x07
    2a8e:	78 85       	ldd	r23, Y+8	; 0x08
    2a90:	04 c0       	rjmp	.+8      	; 0x2a9a <__stack+0x89b>
    2a92:	76 95       	lsr	r23
    2a94:	67 95       	ror	r22
    2a96:	57 95       	ror	r21
    2a98:	47 95       	ror	r20
    2a9a:	ea 95       	dec	r30
    2a9c:	d2 f7       	brpl	.-12     	; 0x2a92 <__stack+0x893>
    2a9e:	e1 e1       	ldi	r30, 0x11	; 17
    2aa0:	f0 e0       	ldi	r31, 0x00	; 0
    2aa2:	ec 0f       	add	r30, r28
    2aa4:	fd 1f       	adc	r31, r29
    2aa6:	e8 0f       	add	r30, r24
    2aa8:	f9 1f       	adc	r31, r25
    2aaa:	40 83       	st	Z, r20
        }
        if( i < 12 && i >= 8)
    2aac:	a9 01       	movw	r20, r18
    2aae:	48 50       	subi	r20, 0x08	; 8
    2ab0:	51 09       	sbc	r21, r1
    2ab2:	44 30       	cpi	r20, 0x04	; 4
    2ab4:	51 05       	cpc	r21, r1
    2ab6:	d0 f4       	brcc	.+52     	; 0x2aec <__stack+0x8ed>
        {
            s = i - 8;
    2ab8:	fc 01       	movw	r30, r24
    2aba:	38 97       	sbiw	r30, 0x08	; 8
            HASH_MD5[i] = c >> (s * 8);
    2abc:	ee 0f       	add	r30, r30
    2abe:	ff 1f       	adc	r31, r31
    2ac0:	ee 0f       	add	r30, r30
    2ac2:	ff 1f       	adc	r31, r31
    2ac4:	ee 0f       	add	r30, r30
    2ac6:	ff 1f       	adc	r31, r31
    2ac8:	49 85       	ldd	r20, Y+9	; 0x09
    2aca:	5a 85       	ldd	r21, Y+10	; 0x0a
    2acc:	6b 85       	ldd	r22, Y+11	; 0x0b
    2ace:	7c 85       	ldd	r23, Y+12	; 0x0c
    2ad0:	04 c0       	rjmp	.+8      	; 0x2ada <__stack+0x8db>
    2ad2:	76 95       	lsr	r23
    2ad4:	67 95       	ror	r22
    2ad6:	57 95       	ror	r21
    2ad8:	47 95       	ror	r20
    2ada:	ea 95       	dec	r30
    2adc:	d2 f7       	brpl	.-12     	; 0x2ad2 <__stack+0x8d3>
    2ade:	e1 e1       	ldi	r30, 0x11	; 17
    2ae0:	f0 e0       	ldi	r31, 0x00	; 0
    2ae2:	ec 0f       	add	r30, r28
    2ae4:	fd 1f       	adc	r31, r29
    2ae6:	e8 0f       	add	r30, r24
    2ae8:	f9 1f       	adc	r31, r25
    2aea:	40 83       	st	Z, r20
        }
        if( i < 16 && i >= 12)
    2aec:	2c 50       	subi	r18, 0x0C	; 12
    2aee:	31 09       	sbc	r19, r1
    2af0:	24 30       	cpi	r18, 0x04	; 4
    2af2:	31 05       	cpc	r19, r1
    2af4:	d8 f4       	brcc	.+54     	; 0x2b2c <__stack+0x92d>
        {
            s = i - 12;
    2af6:	9c 01       	movw	r18, r24
    2af8:	2c 50       	subi	r18, 0x0C	; 12
            HASH_MD5[i] = d >> (s * 8);
    2afa:	31 09       	sbc	r19, r1
    2afc:	22 0f       	add	r18, r18
    2afe:	33 1f       	adc	r19, r19
    2b00:	22 0f       	add	r18, r18
    2b02:	33 1f       	adc	r19, r19
    2b04:	22 0f       	add	r18, r18
    2b06:	33 1f       	adc	r19, r19
    2b08:	4d 85       	ldd	r20, Y+13	; 0x0d
    2b0a:	5e 85       	ldd	r21, Y+14	; 0x0e
    2b0c:	6f 85       	ldd	r22, Y+15	; 0x0f
    2b0e:	78 89       	ldd	r23, Y+16	; 0x10
    2b10:	04 c0       	rjmp	.+8      	; 0x2b1a <__stack+0x91b>
    2b12:	76 95       	lsr	r23
    2b14:	67 95       	ror	r22
    2b16:	57 95       	ror	r21
    2b18:	47 95       	ror	r20
    2b1a:	2a 95       	dec	r18
    2b1c:	d2 f7       	brpl	.-12     	; 0x2b12 <__stack+0x913>
    2b1e:	e1 e1       	ldi	r30, 0x11	; 17
    2b20:	f0 e0       	ldi	r31, 0x00	; 0
    2b22:	ec 0f       	add	r30, r28
    2b24:	fd 1f       	adc	r31, r29
    2b26:	e8 0f       	add	r30, r24
    2b28:	f9 1f       	adc	r31, r25
	
	uint8_t HASH_MD5[16];
    int s;
    //USART_TX(0x0d);//переход в начало строки
    //USART_TX(0x0a);//переход на новую строку
	for(int i = 0; i < 16; i++)
    2b2a:	40 83       	st	Z, r20
		//sprintf(bf, "%x", HASH_MD5[i]);
		//sendTestMessage((unsigned char*)bf);
		//USART_TX(0x0d);//переход в начало строки
		//USART_TX(0x0a);//переход на новую строку
    }
    char* RESULT = (char*)malloc(33 * sizeof(char));
    2b2c:	01 96       	adiw	r24, 0x01	; 1
    2b2e:	77 cf       	rjmp	.-274    	; 0x2a1e <__stack+0x81f>
    2b30:	81 e2       	ldi	r24, 0x21	; 33
    2b32:	90 e0       	ldi	r25, 0x00	; 0
    2b34:	a1 d0       	rcall	.+322    	; 0x2c78 <malloc>
	for(int i = 0, j = 0; i < 16; i++, j += 2)
    2b36:	5c 01       	movw	r10, r24
    2b38:	e1 2c       	mov	r14, r1
    2b3a:	f1 2c       	mov	r15, r1
    2b3c:	00 e0       	ldi	r16, 0x00	; 0
    2b3e:	10 e0       	ldi	r17, 0x00	; 0
    2b40:	00 31       	cpi	r16, 0x10	; 16
    2b42:	11 05       	cpc	r17, r1
    {
        char temp[2];
        sprintf(temp, "%x", HASH_MD5[i]);
    2b44:	c4 f5       	brge	.+112    	; 0x2bb6 <__stack+0x9b7>
    2b46:	e1 e1       	ldi	r30, 0x11	; 17
    2b48:	f0 e0       	ldi	r31, 0x00	; 0
    2b4a:	ec 0f       	add	r30, r28
    2b4c:	fd 1f       	adc	r31, r29
    2b4e:	e0 0f       	add	r30, r16
    2b50:	f1 1f       	adc	r31, r17
    2b52:	80 81       	ld	r24, Z
    2b54:	1f 92       	push	r1
    2b56:	8f 93       	push	r24
    2b58:	8f e7       	ldi	r24, 0x7F	; 127
    2b5a:	92 e0       	ldi	r25, 0x02	; 2
    2b5c:	9f 93       	push	r25
    2b5e:	8f 93       	push	r24
    2b60:	4e 01       	movw	r8, r28
    2b62:	a1 e2       	ldi	r26, 0x21	; 33
    2b64:	8a 0e       	add	r8, r26
    2b66:	91 1c       	adc	r9, r1
    2b68:	9f 92       	push	r9
    2b6a:	8f 92       	push	r8
    2b6c:	a6 d1       	rcall	.+844    	; 0x2eba <sprintf>
        if( strlen(temp)  == 1 )
    2b6e:	f4 01       	movw	r30, r8
    2b70:	01 90       	ld	r0, Z+
    2b72:	00 20       	and	r0, r0
    2b74:	e9 f7       	brne	.-6      	; 0x2b70 <__stack+0x971>
    2b76:	31 97       	sbiw	r30, 0x01	; 1
    2b78:	e8 19       	sub	r30, r8
    2b7a:	f9 09       	sbc	r31, r9
    2b7c:	0f 90       	pop	r0
    2b7e:	0f 90       	pop	r0
    2b80:	0f 90       	pop	r0
    2b82:	0f 90       	pop	r0
    2b84:	0f 90       	pop	r0
    2b86:	0f 90       	pop	r0
    2b88:	31 97       	sbiw	r30, 0x01	; 1
    2b8a:	21 f4       	brne	.+8      	; 0x2b94 <__stack+0x995>
        {
            char buff = temp[0];
    2b8c:	89 a1       	ldd	r24, Y+33	; 0x21
            temp[1] = buff;
    2b8e:	8a a3       	std	Y+34, r24	; 0x22
            temp[0] = '0';
    2b90:	80 e3       	ldi	r24, 0x30	; 48
    2b92:	89 a3       	std	Y+33, r24	; 0x21
        }
        RESULT[j] = temp[0];
    2b94:	f5 01       	movw	r30, r10
    2b96:	ee 0d       	add	r30, r14
    2b98:	ff 1d       	adc	r31, r15
    2b9a:	89 a1       	ldd	r24, Y+33	; 0x21
    2b9c:	80 83       	st	Z, r24
        RESULT[j + 1] = temp[1];
    2b9e:	f7 01       	movw	r30, r14
    2ba0:	31 96       	adiw	r30, 0x01	; 1
    2ba2:	ea 0d       	add	r30, r10
    2ba4:	fb 1d       	adc	r31, r11
    2ba6:	8a a1       	ldd	r24, Y+34	; 0x22
    2ba8:	80 83       	st	Z, r24
		//sendTestMessage((unsigned char*)bf);
		//USART_TX(0x0d);//переход в начало строки
		//USART_TX(0x0a);//переход на новую строку
    }
    char* RESULT = (char*)malloc(33 * sizeof(char));
	for(int i = 0, j = 0; i < 16; i++, j += 2)
    2baa:	0f 5f       	subi	r16, 0xFF	; 255
    2bac:	1f 4f       	sbci	r17, 0xFF	; 255
    2bae:	b2 e0       	ldi	r27, 0x02	; 2
    2bb0:	eb 0e       	add	r14, r27
    2bb2:	f1 1c       	adc	r15, r1
    2bb4:	c5 cf       	rjmp	.-118    	; 0x2b40 <__stack+0x941>
            temp[0] = '0';
        }
        RESULT[j] = temp[0];
        RESULT[j + 1] = temp[1];
    }
    RESULT[32] = '\0';
    2bb6:	f5 01       	movw	r30, r10
    2bb8:	10 a2       	std	Z+32, r1	; 0x20
    return (unsigned char*)RESULT;
}
    2bba:	c5 01       	movw	r24, r10
    2bbc:	e8 96       	adiw	r28, 0x38	; 56
    2bbe:	0f b6       	in	r0, 0x3f	; 63
    2bc0:	f8 94       	cli
    2bc2:	de bf       	out	0x3e, r29	; 62
    2bc4:	0f be       	out	0x3f, r0	; 63
    2bc6:	cd bf       	out	0x3d, r28	; 61
    2bc8:	df 91       	pop	r29
    2bca:	cf 91       	pop	r28
    2bcc:	1f 91       	pop	r17
    2bce:	0f 91       	pop	r16
    2bd0:	ff 90       	pop	r15
    2bd2:	ef 90       	pop	r14
    2bd4:	df 90       	pop	r13
    2bd6:	cf 90       	pop	r12
    2bd8:	bf 90       	pop	r11
    2bda:	af 90       	pop	r10
    2bdc:	9f 90       	pop	r9
    2bde:	8f 90       	pop	r8
    2be0:	7f 90       	pop	r7
    2be2:	6f 90       	pop	r6
    2be4:	5f 90       	pop	r5
    2be6:	4f 90       	pop	r4
    2be8:	3f 90       	pop	r3
    2bea:	2f 90       	pop	r2
    2bec:	08 95       	ret

00002bee <_Z10USART_initj>:

#include "usart.h"

void USART_init(unsigned int speed)
{
	DDRB  |= (1<<PB7);
    2bee:	24 b1       	in	r18, 0x04	; 4
    2bf0:	20 68       	ori	r18, 0x80	; 128
    2bf2:	24 b9       	out	0x04, r18	; 4
	PORTB |= (1<<PB7);
    2bf4:	25 b1       	in	r18, 0x05	; 5
    2bf6:	20 68       	ori	r18, 0x80	; 128
    2bf8:	25 b9       	out	0x05, r18	; 5
	//set speed
	//on tx and rx
	//interruption - on
	//2 stop bit, 8 bit data
	UBRR1H = (unsigned char)(speed>>8);
    2bfa:	90 93 cd 00 	sts	0x00CD, r25	; 0x8000cd <__TEXT_REGION_LENGTH__+0x7c00cd>
	UBRR1L = (unsigned char)(speed);
    2bfe:	80 93 cc 00 	sts	0x00CC, r24	; 0x8000cc <__TEXT_REGION_LENGTH__+0x7c00cc>
	UCSR1B = (1 << RXCIE1) | (1 << RXEN1) | (1 << TXEN1);
    2c02:	e9 ec       	ldi	r30, 0xC9	; 201
    2c04:	f0 e0       	ldi	r31, 0x00	; 0
    2c06:	88 e9       	ldi	r24, 0x98	; 152
    2c08:	80 83       	st	Z, r24
	UCSR1C = (1 << USBS1)|(1 << UCSZ11)|(1 << UCSZ10);
    2c0a:	8e e0       	ldi	r24, 0x0E	; 14
    2c0c:	80 93 ca 00 	sts	0x00CA, r24	; 0x8000ca <__TEXT_REGION_LENGTH__+0x7c00ca>
	UCSR1B &= ~(1<<UCSZ12);
    2c10:	80 81       	ld	r24, Z
    2c12:	8b 7f       	andi	r24, 0xFB	; 251
    2c14:	80 83       	st	Z, r24
    2c16:	2f ef       	ldi	r18, 0xFF	; 255
    2c18:	83 ed       	ldi	r24, 0xD3	; 211
    2c1a:	90 e3       	ldi	r25, 0x30	; 48
    2c1c:	21 50       	subi	r18, 0x01	; 1
    2c1e:	80 40       	sbci	r24, 0x00	; 0
    2c20:	90 40       	sbci	r25, 0x00	; 0
    2c22:	e1 f7       	brne	.-8      	; 0x2c1c <_Z10USART_initj+0x2e>
    2c24:	00 c0       	rjmp	.+0      	; 0x2c26 <_Z10USART_initj+0x38>
    2c26:	00 00       	nop
	_delay_ms(1000);
	PORTB |= (0<<PB7);
    2c28:	85 b1       	in	r24, 0x05	; 5
    2c2a:	85 b9       	out	0x05, r24	; 5
    2c2c:	08 95       	ret

00002c2e <_Z8USART_TXh>:
}

void USART_TX(unsigned char mess)
{
	while( !(UCSR1A & (1<<UDRE1)) ); //waiting for emty register UDR
    2c2e:	90 91 c8 00 	lds	r25, 0x00C8	; 0x8000c8 <__TEXT_REGION_LENGTH__+0x7c00c8>
    2c32:	95 ff       	sbrs	r25, 5
    2c34:	fc cf       	rjmp	.-8      	; 0x2c2e <_Z8USART_TXh>
	UDR1 = mess;
    2c36:	80 93 ce 00 	sts	0x00CE, r24	; 0x8000ce <__TEXT_REGION_LENGTH__+0x7c00ce>
    2c3a:	08 95       	ret

00002c3c <__ashrdi3>:
    2c3c:	97 fb       	bst	r25, 7
    2c3e:	10 f8       	bld	r1, 0

00002c40 <__lshrdi3>:
    2c40:	16 94       	lsr	r1
    2c42:	00 08       	sbc	r0, r0
    2c44:	0f 93       	push	r16
    2c46:	08 30       	cpi	r16, 0x08	; 8
    2c48:	98 f0       	brcs	.+38     	; 0x2c70 <__lshrdi3+0x30>
    2c4a:	08 50       	subi	r16, 0x08	; 8
    2c4c:	23 2f       	mov	r18, r19
    2c4e:	34 2f       	mov	r19, r20
    2c50:	45 2f       	mov	r20, r21
    2c52:	56 2f       	mov	r21, r22
    2c54:	67 2f       	mov	r22, r23
    2c56:	78 2f       	mov	r23, r24
    2c58:	89 2f       	mov	r24, r25
    2c5a:	90 2d       	mov	r25, r0
    2c5c:	f4 cf       	rjmp	.-24     	; 0x2c46 <__lshrdi3+0x6>
    2c5e:	05 94       	asr	r0
    2c60:	97 95       	ror	r25
    2c62:	87 95       	ror	r24
    2c64:	77 95       	ror	r23
    2c66:	67 95       	ror	r22
    2c68:	57 95       	ror	r21
    2c6a:	47 95       	ror	r20
    2c6c:	37 95       	ror	r19
    2c6e:	27 95       	ror	r18
    2c70:	0a 95       	dec	r16
    2c72:	aa f7       	brpl	.-22     	; 0x2c5e <__lshrdi3+0x1e>
    2c74:	0f 91       	pop	r16
    2c76:	08 95       	ret

00002c78 <malloc>:
    2c78:	0f 93       	push	r16
    2c7a:	1f 93       	push	r17
    2c7c:	cf 93       	push	r28
    2c7e:	df 93       	push	r29
    2c80:	82 30       	cpi	r24, 0x02	; 2
    2c82:	91 05       	cpc	r25, r1
    2c84:	10 f4       	brcc	.+4      	; 0x2c8a <malloc+0x12>
    2c86:	82 e0       	ldi	r24, 0x02	; 2
    2c88:	90 e0       	ldi	r25, 0x00	; 0
    2c8a:	e0 91 84 02 	lds	r30, 0x0284	; 0x800284 <__flp>
    2c8e:	f0 91 85 02 	lds	r31, 0x0285	; 0x800285 <__flp+0x1>
    2c92:	20 e0       	ldi	r18, 0x00	; 0
    2c94:	30 e0       	ldi	r19, 0x00	; 0
    2c96:	a0 e0       	ldi	r26, 0x00	; 0
    2c98:	b0 e0       	ldi	r27, 0x00	; 0
    2c9a:	30 97       	sbiw	r30, 0x00	; 0
    2c9c:	19 f1       	breq	.+70     	; 0x2ce4 <malloc+0x6c>
    2c9e:	40 81       	ld	r20, Z
    2ca0:	51 81       	ldd	r21, Z+1	; 0x01
    2ca2:	02 81       	ldd	r16, Z+2	; 0x02
    2ca4:	13 81       	ldd	r17, Z+3	; 0x03
    2ca6:	48 17       	cp	r20, r24
    2ca8:	59 07       	cpc	r21, r25
    2caa:	c8 f0       	brcs	.+50     	; 0x2cde <malloc+0x66>
    2cac:	84 17       	cp	r24, r20
    2cae:	95 07       	cpc	r25, r21
    2cb0:	69 f4       	brne	.+26     	; 0x2ccc <malloc+0x54>
    2cb2:	10 97       	sbiw	r26, 0x00	; 0
    2cb4:	31 f0       	breq	.+12     	; 0x2cc2 <malloc+0x4a>
    2cb6:	12 96       	adiw	r26, 0x02	; 2
    2cb8:	0c 93       	st	X, r16
    2cba:	12 97       	sbiw	r26, 0x02	; 2
    2cbc:	13 96       	adiw	r26, 0x03	; 3
    2cbe:	1c 93       	st	X, r17
    2cc0:	27 c0       	rjmp	.+78     	; 0x2d10 <malloc+0x98>
    2cc2:	00 93 84 02 	sts	0x0284, r16	; 0x800284 <__flp>
    2cc6:	10 93 85 02 	sts	0x0285, r17	; 0x800285 <__flp+0x1>
    2cca:	22 c0       	rjmp	.+68     	; 0x2d10 <malloc+0x98>
    2ccc:	21 15       	cp	r18, r1
    2cce:	31 05       	cpc	r19, r1
    2cd0:	19 f0       	breq	.+6      	; 0x2cd8 <malloc+0x60>
    2cd2:	42 17       	cp	r20, r18
    2cd4:	53 07       	cpc	r21, r19
    2cd6:	18 f4       	brcc	.+6      	; 0x2cde <malloc+0x66>
    2cd8:	9a 01       	movw	r18, r20
    2cda:	bd 01       	movw	r22, r26
    2cdc:	ef 01       	movw	r28, r30
    2cde:	df 01       	movw	r26, r30
    2ce0:	f8 01       	movw	r30, r16
    2ce2:	db cf       	rjmp	.-74     	; 0x2c9a <malloc+0x22>
    2ce4:	21 15       	cp	r18, r1
    2ce6:	31 05       	cpc	r19, r1
    2ce8:	f9 f0       	breq	.+62     	; 0x2d28 <malloc+0xb0>
    2cea:	28 1b       	sub	r18, r24
    2cec:	39 0b       	sbc	r19, r25
    2cee:	24 30       	cpi	r18, 0x04	; 4
    2cf0:	31 05       	cpc	r19, r1
    2cf2:	80 f4       	brcc	.+32     	; 0x2d14 <malloc+0x9c>
    2cf4:	8a 81       	ldd	r24, Y+2	; 0x02
    2cf6:	9b 81       	ldd	r25, Y+3	; 0x03
    2cf8:	61 15       	cp	r22, r1
    2cfa:	71 05       	cpc	r23, r1
    2cfc:	21 f0       	breq	.+8      	; 0x2d06 <malloc+0x8e>
    2cfe:	fb 01       	movw	r30, r22
    2d00:	93 83       	std	Z+3, r25	; 0x03
    2d02:	82 83       	std	Z+2, r24	; 0x02
    2d04:	04 c0       	rjmp	.+8      	; 0x2d0e <malloc+0x96>
    2d06:	90 93 85 02 	sts	0x0285, r25	; 0x800285 <__flp+0x1>
    2d0a:	80 93 84 02 	sts	0x0284, r24	; 0x800284 <__flp>
    2d0e:	fe 01       	movw	r30, r28
    2d10:	32 96       	adiw	r30, 0x02	; 2
    2d12:	44 c0       	rjmp	.+136    	; 0x2d9c <malloc+0x124>
    2d14:	fe 01       	movw	r30, r28
    2d16:	e2 0f       	add	r30, r18
    2d18:	f3 1f       	adc	r31, r19
    2d1a:	81 93       	st	Z+, r24
    2d1c:	91 93       	st	Z+, r25
    2d1e:	22 50       	subi	r18, 0x02	; 2
    2d20:	31 09       	sbc	r19, r1
    2d22:	39 83       	std	Y+1, r19	; 0x01
    2d24:	28 83       	st	Y, r18
    2d26:	3a c0       	rjmp	.+116    	; 0x2d9c <malloc+0x124>
    2d28:	20 91 82 02 	lds	r18, 0x0282	; 0x800282 <__data_end>
    2d2c:	30 91 83 02 	lds	r19, 0x0283	; 0x800283 <__data_end+0x1>
    2d30:	23 2b       	or	r18, r19
    2d32:	41 f4       	brne	.+16     	; 0x2d44 <malloc+0xcc>
    2d34:	20 91 02 02 	lds	r18, 0x0202	; 0x800202 <__malloc_heap_start>
    2d38:	30 91 03 02 	lds	r19, 0x0203	; 0x800203 <__malloc_heap_start+0x1>
    2d3c:	30 93 83 02 	sts	0x0283, r19	; 0x800283 <__data_end+0x1>
    2d40:	20 93 82 02 	sts	0x0282, r18	; 0x800282 <__data_end>
    2d44:	20 91 00 02 	lds	r18, 0x0200	; 0x800200 <__DATA_REGION_ORIGIN__>
    2d48:	30 91 01 02 	lds	r19, 0x0201	; 0x800201 <__DATA_REGION_ORIGIN__+0x1>
    2d4c:	21 15       	cp	r18, r1
    2d4e:	31 05       	cpc	r19, r1
    2d50:	41 f4       	brne	.+16     	; 0x2d62 <malloc+0xea>
    2d52:	2d b7       	in	r18, 0x3d	; 61
    2d54:	3e b7       	in	r19, 0x3e	; 62
    2d56:	40 91 04 02 	lds	r20, 0x0204	; 0x800204 <__malloc_margin>
    2d5a:	50 91 05 02 	lds	r21, 0x0205	; 0x800205 <__malloc_margin+0x1>
    2d5e:	24 1b       	sub	r18, r20
    2d60:	35 0b       	sbc	r19, r21
    2d62:	e0 91 82 02 	lds	r30, 0x0282	; 0x800282 <__data_end>
    2d66:	f0 91 83 02 	lds	r31, 0x0283	; 0x800283 <__data_end+0x1>
    2d6a:	e2 17       	cp	r30, r18
    2d6c:	f3 07       	cpc	r31, r19
    2d6e:	a0 f4       	brcc	.+40     	; 0x2d98 <malloc+0x120>
    2d70:	2e 1b       	sub	r18, r30
    2d72:	3f 0b       	sbc	r19, r31
    2d74:	28 17       	cp	r18, r24
    2d76:	39 07       	cpc	r19, r25
    2d78:	78 f0       	brcs	.+30     	; 0x2d98 <malloc+0x120>
    2d7a:	ac 01       	movw	r20, r24
    2d7c:	4e 5f       	subi	r20, 0xFE	; 254
    2d7e:	5f 4f       	sbci	r21, 0xFF	; 255
    2d80:	24 17       	cp	r18, r20
    2d82:	35 07       	cpc	r19, r21
    2d84:	48 f0       	brcs	.+18     	; 0x2d98 <malloc+0x120>
    2d86:	4e 0f       	add	r20, r30
    2d88:	5f 1f       	adc	r21, r31
    2d8a:	50 93 83 02 	sts	0x0283, r21	; 0x800283 <__data_end+0x1>
    2d8e:	40 93 82 02 	sts	0x0282, r20	; 0x800282 <__data_end>
    2d92:	81 93       	st	Z+, r24
    2d94:	91 93       	st	Z+, r25
    2d96:	02 c0       	rjmp	.+4      	; 0x2d9c <malloc+0x124>
    2d98:	e0 e0       	ldi	r30, 0x00	; 0
    2d9a:	f0 e0       	ldi	r31, 0x00	; 0
    2d9c:	cf 01       	movw	r24, r30
    2d9e:	df 91       	pop	r29
    2da0:	cf 91       	pop	r28
    2da2:	1f 91       	pop	r17
    2da4:	0f 91       	pop	r16
    2da6:	08 95       	ret

00002da8 <free>:
    2da8:	cf 93       	push	r28
    2daa:	df 93       	push	r29
    2dac:	00 97       	sbiw	r24, 0x00	; 0
    2dae:	09 f4       	brne	.+2      	; 0x2db2 <free+0xa>
    2db0:	81 c0       	rjmp	.+258    	; 0x2eb4 <free+0x10c>
    2db2:	fc 01       	movw	r30, r24
    2db4:	32 97       	sbiw	r30, 0x02	; 2
    2db6:	13 82       	std	Z+3, r1	; 0x03
    2db8:	12 82       	std	Z+2, r1	; 0x02
    2dba:	a0 91 84 02 	lds	r26, 0x0284	; 0x800284 <__flp>
    2dbe:	b0 91 85 02 	lds	r27, 0x0285	; 0x800285 <__flp+0x1>
    2dc2:	10 97       	sbiw	r26, 0x00	; 0
    2dc4:	81 f4       	brne	.+32     	; 0x2de6 <free+0x3e>
    2dc6:	20 81       	ld	r18, Z
    2dc8:	31 81       	ldd	r19, Z+1	; 0x01
    2dca:	82 0f       	add	r24, r18
    2dcc:	93 1f       	adc	r25, r19
    2dce:	20 91 82 02 	lds	r18, 0x0282	; 0x800282 <__data_end>
    2dd2:	30 91 83 02 	lds	r19, 0x0283	; 0x800283 <__data_end+0x1>
    2dd6:	28 17       	cp	r18, r24
    2dd8:	39 07       	cpc	r19, r25
    2dda:	51 f5       	brne	.+84     	; 0x2e30 <free+0x88>
    2ddc:	f0 93 83 02 	sts	0x0283, r31	; 0x800283 <__data_end+0x1>
    2de0:	e0 93 82 02 	sts	0x0282, r30	; 0x800282 <__data_end>
    2de4:	67 c0       	rjmp	.+206    	; 0x2eb4 <free+0x10c>
    2de6:	ed 01       	movw	r28, r26
    2de8:	20 e0       	ldi	r18, 0x00	; 0
    2dea:	30 e0       	ldi	r19, 0x00	; 0
    2dec:	ce 17       	cp	r28, r30
    2dee:	df 07       	cpc	r29, r31
    2df0:	40 f4       	brcc	.+16     	; 0x2e02 <free+0x5a>
    2df2:	4a 81       	ldd	r20, Y+2	; 0x02
    2df4:	5b 81       	ldd	r21, Y+3	; 0x03
    2df6:	9e 01       	movw	r18, r28
    2df8:	41 15       	cp	r20, r1
    2dfa:	51 05       	cpc	r21, r1
    2dfc:	f1 f0       	breq	.+60     	; 0x2e3a <free+0x92>
    2dfe:	ea 01       	movw	r28, r20
    2e00:	f5 cf       	rjmp	.-22     	; 0x2dec <free+0x44>
    2e02:	d3 83       	std	Z+3, r29	; 0x03
    2e04:	c2 83       	std	Z+2, r28	; 0x02
    2e06:	40 81       	ld	r20, Z
    2e08:	51 81       	ldd	r21, Z+1	; 0x01
    2e0a:	84 0f       	add	r24, r20
    2e0c:	95 1f       	adc	r25, r21
    2e0e:	c8 17       	cp	r28, r24
    2e10:	d9 07       	cpc	r29, r25
    2e12:	59 f4       	brne	.+22     	; 0x2e2a <free+0x82>
    2e14:	88 81       	ld	r24, Y
    2e16:	99 81       	ldd	r25, Y+1	; 0x01
    2e18:	84 0f       	add	r24, r20
    2e1a:	95 1f       	adc	r25, r21
    2e1c:	02 96       	adiw	r24, 0x02	; 2
    2e1e:	91 83       	std	Z+1, r25	; 0x01
    2e20:	80 83       	st	Z, r24
    2e22:	8a 81       	ldd	r24, Y+2	; 0x02
    2e24:	9b 81       	ldd	r25, Y+3	; 0x03
    2e26:	93 83       	std	Z+3, r25	; 0x03
    2e28:	82 83       	std	Z+2, r24	; 0x02
    2e2a:	21 15       	cp	r18, r1
    2e2c:	31 05       	cpc	r19, r1
    2e2e:	29 f4       	brne	.+10     	; 0x2e3a <free+0x92>
    2e30:	f0 93 85 02 	sts	0x0285, r31	; 0x800285 <__flp+0x1>
    2e34:	e0 93 84 02 	sts	0x0284, r30	; 0x800284 <__flp>
    2e38:	3d c0       	rjmp	.+122    	; 0x2eb4 <free+0x10c>
    2e3a:	e9 01       	movw	r28, r18
    2e3c:	fb 83       	std	Y+3, r31	; 0x03
    2e3e:	ea 83       	std	Y+2, r30	; 0x02
    2e40:	49 91       	ld	r20, Y+
    2e42:	59 91       	ld	r21, Y+
    2e44:	c4 0f       	add	r28, r20
    2e46:	d5 1f       	adc	r29, r21
    2e48:	ec 17       	cp	r30, r28
    2e4a:	fd 07       	cpc	r31, r29
    2e4c:	61 f4       	brne	.+24     	; 0x2e66 <free+0xbe>
    2e4e:	80 81       	ld	r24, Z
    2e50:	91 81       	ldd	r25, Z+1	; 0x01
    2e52:	84 0f       	add	r24, r20
    2e54:	95 1f       	adc	r25, r21
    2e56:	02 96       	adiw	r24, 0x02	; 2
    2e58:	e9 01       	movw	r28, r18
    2e5a:	99 83       	std	Y+1, r25	; 0x01
    2e5c:	88 83       	st	Y, r24
    2e5e:	82 81       	ldd	r24, Z+2	; 0x02
    2e60:	93 81       	ldd	r25, Z+3	; 0x03
    2e62:	9b 83       	std	Y+3, r25	; 0x03
    2e64:	8a 83       	std	Y+2, r24	; 0x02
    2e66:	e0 e0       	ldi	r30, 0x00	; 0
    2e68:	f0 e0       	ldi	r31, 0x00	; 0
    2e6a:	12 96       	adiw	r26, 0x02	; 2
    2e6c:	8d 91       	ld	r24, X+
    2e6e:	9c 91       	ld	r25, X
    2e70:	13 97       	sbiw	r26, 0x03	; 3
    2e72:	00 97       	sbiw	r24, 0x00	; 0
    2e74:	19 f0       	breq	.+6      	; 0x2e7c <free+0xd4>
    2e76:	fd 01       	movw	r30, r26
    2e78:	dc 01       	movw	r26, r24
    2e7a:	f7 cf       	rjmp	.-18     	; 0x2e6a <free+0xc2>
    2e7c:	8d 91       	ld	r24, X+
    2e7e:	9c 91       	ld	r25, X
    2e80:	11 97       	sbiw	r26, 0x01	; 1
    2e82:	9d 01       	movw	r18, r26
    2e84:	2e 5f       	subi	r18, 0xFE	; 254
    2e86:	3f 4f       	sbci	r19, 0xFF	; 255
    2e88:	82 0f       	add	r24, r18
    2e8a:	93 1f       	adc	r25, r19
    2e8c:	20 91 82 02 	lds	r18, 0x0282	; 0x800282 <__data_end>
    2e90:	30 91 83 02 	lds	r19, 0x0283	; 0x800283 <__data_end+0x1>
    2e94:	28 17       	cp	r18, r24
    2e96:	39 07       	cpc	r19, r25
    2e98:	69 f4       	brne	.+26     	; 0x2eb4 <free+0x10c>
    2e9a:	30 97       	sbiw	r30, 0x00	; 0
    2e9c:	29 f4       	brne	.+10     	; 0x2ea8 <free+0x100>
    2e9e:	10 92 85 02 	sts	0x0285, r1	; 0x800285 <__flp+0x1>
    2ea2:	10 92 84 02 	sts	0x0284, r1	; 0x800284 <__flp>
    2ea6:	02 c0       	rjmp	.+4      	; 0x2eac <free+0x104>
    2ea8:	13 82       	std	Z+3, r1	; 0x03
    2eaa:	12 82       	std	Z+2, r1	; 0x02
    2eac:	b0 93 83 02 	sts	0x0283, r27	; 0x800283 <__data_end+0x1>
    2eb0:	a0 93 82 02 	sts	0x0282, r26	; 0x800282 <__data_end>
    2eb4:	df 91       	pop	r29
    2eb6:	cf 91       	pop	r28
    2eb8:	08 95       	ret

00002eba <sprintf>:
    2eba:	0f 93       	push	r16
    2ebc:	1f 93       	push	r17
    2ebe:	cf 93       	push	r28
    2ec0:	df 93       	push	r29
    2ec2:	cd b7       	in	r28, 0x3d	; 61
    2ec4:	de b7       	in	r29, 0x3e	; 62
    2ec6:	2e 97       	sbiw	r28, 0x0e	; 14
    2ec8:	0f b6       	in	r0, 0x3f	; 63
    2eca:	f8 94       	cli
    2ecc:	de bf       	out	0x3e, r29	; 62
    2ece:	0f be       	out	0x3f, r0	; 63
    2ed0:	cd bf       	out	0x3d, r28	; 61
    2ed2:	0e 89       	ldd	r16, Y+22	; 0x16
    2ed4:	1f 89       	ldd	r17, Y+23	; 0x17
    2ed6:	86 e0       	ldi	r24, 0x06	; 6
    2ed8:	8c 83       	std	Y+4, r24	; 0x04
    2eda:	1a 83       	std	Y+2, r17	; 0x02
    2edc:	09 83       	std	Y+1, r16	; 0x01
    2ede:	8f ef       	ldi	r24, 0xFF	; 255
    2ee0:	9f e7       	ldi	r25, 0x7F	; 127
    2ee2:	9e 83       	std	Y+6, r25	; 0x06
    2ee4:	8d 83       	std	Y+5, r24	; 0x05
    2ee6:	ae 01       	movw	r20, r28
    2ee8:	46 5e       	subi	r20, 0xE6	; 230
    2eea:	5f 4f       	sbci	r21, 0xFF	; 255
    2eec:	68 8d       	ldd	r22, Y+24	; 0x18
    2eee:	79 8d       	ldd	r23, Y+25	; 0x19
    2ef0:	ce 01       	movw	r24, r28
    2ef2:	01 96       	adiw	r24, 0x01	; 1
    2ef4:	10 d0       	rcall	.+32     	; 0x2f16 <vfprintf>
    2ef6:	ef 81       	ldd	r30, Y+7	; 0x07
    2ef8:	f8 85       	ldd	r31, Y+8	; 0x08
    2efa:	e0 0f       	add	r30, r16
    2efc:	f1 1f       	adc	r31, r17
    2efe:	10 82       	st	Z, r1
    2f00:	2e 96       	adiw	r28, 0x0e	; 14
    2f02:	0f b6       	in	r0, 0x3f	; 63
    2f04:	f8 94       	cli
    2f06:	de bf       	out	0x3e, r29	; 62
    2f08:	0f be       	out	0x3f, r0	; 63
    2f0a:	cd bf       	out	0x3d, r28	; 61
    2f0c:	df 91       	pop	r29
    2f0e:	cf 91       	pop	r28
    2f10:	1f 91       	pop	r17
    2f12:	0f 91       	pop	r16
    2f14:	08 95       	ret

00002f16 <vfprintf>:
    2f16:	2f 92       	push	r2
    2f18:	3f 92       	push	r3
    2f1a:	4f 92       	push	r4
    2f1c:	5f 92       	push	r5
    2f1e:	6f 92       	push	r6
    2f20:	7f 92       	push	r7
    2f22:	8f 92       	push	r8
    2f24:	9f 92       	push	r9
    2f26:	af 92       	push	r10
    2f28:	bf 92       	push	r11
    2f2a:	cf 92       	push	r12
    2f2c:	df 92       	push	r13
    2f2e:	ef 92       	push	r14
    2f30:	ff 92       	push	r15
    2f32:	0f 93       	push	r16
    2f34:	1f 93       	push	r17
    2f36:	cf 93       	push	r28
    2f38:	df 93       	push	r29
    2f3a:	cd b7       	in	r28, 0x3d	; 61
    2f3c:	de b7       	in	r29, 0x3e	; 62
    2f3e:	2b 97       	sbiw	r28, 0x0b	; 11
    2f40:	0f b6       	in	r0, 0x3f	; 63
    2f42:	f8 94       	cli
    2f44:	de bf       	out	0x3e, r29	; 62
    2f46:	0f be       	out	0x3f, r0	; 63
    2f48:	cd bf       	out	0x3d, r28	; 61
    2f4a:	6c 01       	movw	r12, r24
    2f4c:	7b 01       	movw	r14, r22
    2f4e:	8a 01       	movw	r16, r20
    2f50:	fc 01       	movw	r30, r24
    2f52:	17 82       	std	Z+7, r1	; 0x07
    2f54:	16 82       	std	Z+6, r1	; 0x06
    2f56:	83 81       	ldd	r24, Z+3	; 0x03
    2f58:	81 ff       	sbrs	r24, 1
    2f5a:	bf c1       	rjmp	.+894    	; 0x32da <vfprintf+0x3c4>
    2f5c:	ce 01       	movw	r24, r28
    2f5e:	01 96       	adiw	r24, 0x01	; 1
    2f60:	3c 01       	movw	r6, r24
    2f62:	f6 01       	movw	r30, r12
    2f64:	93 81       	ldd	r25, Z+3	; 0x03
    2f66:	f7 01       	movw	r30, r14
    2f68:	93 fd       	sbrc	r25, 3
    2f6a:	85 91       	lpm	r24, Z+
    2f6c:	93 ff       	sbrs	r25, 3
    2f6e:	81 91       	ld	r24, Z+
    2f70:	7f 01       	movw	r14, r30
    2f72:	88 23       	and	r24, r24
    2f74:	09 f4       	brne	.+2      	; 0x2f78 <vfprintf+0x62>
    2f76:	ad c1       	rjmp	.+858    	; 0x32d2 <vfprintf+0x3bc>
    2f78:	85 32       	cpi	r24, 0x25	; 37
    2f7a:	39 f4       	brne	.+14     	; 0x2f8a <vfprintf+0x74>
    2f7c:	93 fd       	sbrc	r25, 3
    2f7e:	85 91       	lpm	r24, Z+
    2f80:	93 ff       	sbrs	r25, 3
    2f82:	81 91       	ld	r24, Z+
    2f84:	7f 01       	movw	r14, r30
    2f86:	85 32       	cpi	r24, 0x25	; 37
    2f88:	21 f4       	brne	.+8      	; 0x2f92 <vfprintf+0x7c>
    2f8a:	b6 01       	movw	r22, r12
    2f8c:	90 e0       	ldi	r25, 0x00	; 0
    2f8e:	d6 d1       	rcall	.+940    	; 0x333c <fputc>
    2f90:	e8 cf       	rjmp	.-48     	; 0x2f62 <vfprintf+0x4c>
    2f92:	91 2c       	mov	r9, r1
    2f94:	21 2c       	mov	r2, r1
    2f96:	31 2c       	mov	r3, r1
    2f98:	ff e1       	ldi	r31, 0x1F	; 31
    2f9a:	f3 15       	cp	r31, r3
    2f9c:	d8 f0       	brcs	.+54     	; 0x2fd4 <vfprintf+0xbe>
    2f9e:	8b 32       	cpi	r24, 0x2B	; 43
    2fa0:	79 f0       	breq	.+30     	; 0x2fc0 <vfprintf+0xaa>
    2fa2:	38 f4       	brcc	.+14     	; 0x2fb2 <vfprintf+0x9c>
    2fa4:	80 32       	cpi	r24, 0x20	; 32
    2fa6:	79 f0       	breq	.+30     	; 0x2fc6 <vfprintf+0xb0>
    2fa8:	83 32       	cpi	r24, 0x23	; 35
    2faa:	a1 f4       	brne	.+40     	; 0x2fd4 <vfprintf+0xbe>
    2fac:	23 2d       	mov	r18, r3
    2fae:	20 61       	ori	r18, 0x10	; 16
    2fb0:	1d c0       	rjmp	.+58     	; 0x2fec <vfprintf+0xd6>
    2fb2:	8d 32       	cpi	r24, 0x2D	; 45
    2fb4:	61 f0       	breq	.+24     	; 0x2fce <vfprintf+0xb8>
    2fb6:	80 33       	cpi	r24, 0x30	; 48
    2fb8:	69 f4       	brne	.+26     	; 0x2fd4 <vfprintf+0xbe>
    2fba:	23 2d       	mov	r18, r3
    2fbc:	21 60       	ori	r18, 0x01	; 1
    2fbe:	16 c0       	rjmp	.+44     	; 0x2fec <vfprintf+0xd6>
    2fc0:	83 2d       	mov	r24, r3
    2fc2:	82 60       	ori	r24, 0x02	; 2
    2fc4:	38 2e       	mov	r3, r24
    2fc6:	e3 2d       	mov	r30, r3
    2fc8:	e4 60       	ori	r30, 0x04	; 4
    2fca:	3e 2e       	mov	r3, r30
    2fcc:	2a c0       	rjmp	.+84     	; 0x3022 <vfprintf+0x10c>
    2fce:	f3 2d       	mov	r31, r3
    2fd0:	f8 60       	ori	r31, 0x08	; 8
    2fd2:	1d c0       	rjmp	.+58     	; 0x300e <vfprintf+0xf8>
    2fd4:	37 fc       	sbrc	r3, 7
    2fd6:	2d c0       	rjmp	.+90     	; 0x3032 <vfprintf+0x11c>
    2fd8:	20 ed       	ldi	r18, 0xD0	; 208
    2fda:	28 0f       	add	r18, r24
    2fdc:	2a 30       	cpi	r18, 0x0A	; 10
    2fde:	40 f0       	brcs	.+16     	; 0x2ff0 <vfprintf+0xda>
    2fe0:	8e 32       	cpi	r24, 0x2E	; 46
    2fe2:	b9 f4       	brne	.+46     	; 0x3012 <vfprintf+0xfc>
    2fe4:	36 fc       	sbrc	r3, 6
    2fe6:	75 c1       	rjmp	.+746    	; 0x32d2 <vfprintf+0x3bc>
    2fe8:	23 2d       	mov	r18, r3
    2fea:	20 64       	ori	r18, 0x40	; 64
    2fec:	32 2e       	mov	r3, r18
    2fee:	19 c0       	rjmp	.+50     	; 0x3022 <vfprintf+0x10c>
    2ff0:	36 fe       	sbrs	r3, 6
    2ff2:	06 c0       	rjmp	.+12     	; 0x3000 <vfprintf+0xea>
    2ff4:	8a e0       	ldi	r24, 0x0A	; 10
    2ff6:	98 9e       	mul	r9, r24
    2ff8:	20 0d       	add	r18, r0
    2ffa:	11 24       	eor	r1, r1
    2ffc:	92 2e       	mov	r9, r18
    2ffe:	11 c0       	rjmp	.+34     	; 0x3022 <vfprintf+0x10c>
    3000:	ea e0       	ldi	r30, 0x0A	; 10
    3002:	2e 9e       	mul	r2, r30
    3004:	20 0d       	add	r18, r0
    3006:	11 24       	eor	r1, r1
    3008:	22 2e       	mov	r2, r18
    300a:	f3 2d       	mov	r31, r3
    300c:	f0 62       	ori	r31, 0x20	; 32
    300e:	3f 2e       	mov	r3, r31
    3010:	08 c0       	rjmp	.+16     	; 0x3022 <vfprintf+0x10c>
    3012:	8c 36       	cpi	r24, 0x6C	; 108
    3014:	21 f4       	brne	.+8      	; 0x301e <vfprintf+0x108>
    3016:	83 2d       	mov	r24, r3
    3018:	80 68       	ori	r24, 0x80	; 128
    301a:	38 2e       	mov	r3, r24
    301c:	02 c0       	rjmp	.+4      	; 0x3022 <vfprintf+0x10c>
    301e:	88 36       	cpi	r24, 0x68	; 104
    3020:	41 f4       	brne	.+16     	; 0x3032 <vfprintf+0x11c>
    3022:	f7 01       	movw	r30, r14
    3024:	93 fd       	sbrc	r25, 3
    3026:	85 91       	lpm	r24, Z+
    3028:	93 ff       	sbrs	r25, 3
    302a:	81 91       	ld	r24, Z+
    302c:	7f 01       	movw	r14, r30
    302e:	81 11       	cpse	r24, r1
    3030:	b3 cf       	rjmp	.-154    	; 0x2f98 <vfprintf+0x82>
    3032:	98 2f       	mov	r25, r24
    3034:	9f 7d       	andi	r25, 0xDF	; 223
    3036:	95 54       	subi	r25, 0x45	; 69
    3038:	93 30       	cpi	r25, 0x03	; 3
    303a:	28 f4       	brcc	.+10     	; 0x3046 <vfprintf+0x130>
    303c:	0c 5f       	subi	r16, 0xFC	; 252
    303e:	1f 4f       	sbci	r17, 0xFF	; 255
    3040:	9f e3       	ldi	r25, 0x3F	; 63
    3042:	99 83       	std	Y+1, r25	; 0x01
    3044:	0d c0       	rjmp	.+26     	; 0x3060 <vfprintf+0x14a>
    3046:	83 36       	cpi	r24, 0x63	; 99
    3048:	31 f0       	breq	.+12     	; 0x3056 <vfprintf+0x140>
    304a:	83 37       	cpi	r24, 0x73	; 115
    304c:	71 f0       	breq	.+28     	; 0x306a <vfprintf+0x154>
    304e:	83 35       	cpi	r24, 0x53	; 83
    3050:	09 f0       	breq	.+2      	; 0x3054 <vfprintf+0x13e>
    3052:	55 c0       	rjmp	.+170    	; 0x30fe <vfprintf+0x1e8>
    3054:	20 c0       	rjmp	.+64     	; 0x3096 <vfprintf+0x180>
    3056:	f8 01       	movw	r30, r16
    3058:	80 81       	ld	r24, Z
    305a:	89 83       	std	Y+1, r24	; 0x01
    305c:	0e 5f       	subi	r16, 0xFE	; 254
    305e:	1f 4f       	sbci	r17, 0xFF	; 255
    3060:	88 24       	eor	r8, r8
    3062:	83 94       	inc	r8
    3064:	91 2c       	mov	r9, r1
    3066:	53 01       	movw	r10, r6
    3068:	12 c0       	rjmp	.+36     	; 0x308e <vfprintf+0x178>
    306a:	28 01       	movw	r4, r16
    306c:	f2 e0       	ldi	r31, 0x02	; 2
    306e:	4f 0e       	add	r4, r31
    3070:	51 1c       	adc	r5, r1
    3072:	f8 01       	movw	r30, r16
    3074:	a0 80       	ld	r10, Z
    3076:	b1 80       	ldd	r11, Z+1	; 0x01
    3078:	36 fe       	sbrs	r3, 6
    307a:	03 c0       	rjmp	.+6      	; 0x3082 <vfprintf+0x16c>
    307c:	69 2d       	mov	r22, r9
    307e:	70 e0       	ldi	r23, 0x00	; 0
    3080:	02 c0       	rjmp	.+4      	; 0x3086 <vfprintf+0x170>
    3082:	6f ef       	ldi	r22, 0xFF	; 255
    3084:	7f ef       	ldi	r23, 0xFF	; 255
    3086:	c5 01       	movw	r24, r10
    3088:	4e d1       	rcall	.+668    	; 0x3326 <strnlen>
    308a:	4c 01       	movw	r8, r24
    308c:	82 01       	movw	r16, r4
    308e:	f3 2d       	mov	r31, r3
    3090:	ff 77       	andi	r31, 0x7F	; 127
    3092:	3f 2e       	mov	r3, r31
    3094:	15 c0       	rjmp	.+42     	; 0x30c0 <vfprintf+0x1aa>
    3096:	28 01       	movw	r4, r16
    3098:	22 e0       	ldi	r18, 0x02	; 2
    309a:	42 0e       	add	r4, r18
    309c:	51 1c       	adc	r5, r1
    309e:	f8 01       	movw	r30, r16
    30a0:	a0 80       	ld	r10, Z
    30a2:	b1 80       	ldd	r11, Z+1	; 0x01
    30a4:	36 fe       	sbrs	r3, 6
    30a6:	03 c0       	rjmp	.+6      	; 0x30ae <vfprintf+0x198>
    30a8:	69 2d       	mov	r22, r9
    30aa:	70 e0       	ldi	r23, 0x00	; 0
    30ac:	02 c0       	rjmp	.+4      	; 0x30b2 <vfprintf+0x19c>
    30ae:	6f ef       	ldi	r22, 0xFF	; 255
    30b0:	7f ef       	ldi	r23, 0xFF	; 255
    30b2:	c5 01       	movw	r24, r10
    30b4:	2d d1       	rcall	.+602    	; 0x3310 <strnlen_P>
    30b6:	4c 01       	movw	r8, r24
    30b8:	f3 2d       	mov	r31, r3
    30ba:	f0 68       	ori	r31, 0x80	; 128
    30bc:	3f 2e       	mov	r3, r31
    30be:	82 01       	movw	r16, r4
    30c0:	33 fc       	sbrc	r3, 3
    30c2:	19 c0       	rjmp	.+50     	; 0x30f6 <vfprintf+0x1e0>
    30c4:	82 2d       	mov	r24, r2
    30c6:	90 e0       	ldi	r25, 0x00	; 0
    30c8:	88 16       	cp	r8, r24
    30ca:	99 06       	cpc	r9, r25
    30cc:	a0 f4       	brcc	.+40     	; 0x30f6 <vfprintf+0x1e0>
    30ce:	b6 01       	movw	r22, r12
    30d0:	80 e2       	ldi	r24, 0x20	; 32
    30d2:	90 e0       	ldi	r25, 0x00	; 0
    30d4:	33 d1       	rcall	.+614    	; 0x333c <fputc>
    30d6:	2a 94       	dec	r2
    30d8:	f5 cf       	rjmp	.-22     	; 0x30c4 <vfprintf+0x1ae>
    30da:	f5 01       	movw	r30, r10
    30dc:	37 fc       	sbrc	r3, 7
    30de:	85 91       	lpm	r24, Z+
    30e0:	37 fe       	sbrs	r3, 7
    30e2:	81 91       	ld	r24, Z+
    30e4:	5f 01       	movw	r10, r30
    30e6:	b6 01       	movw	r22, r12
    30e8:	90 e0       	ldi	r25, 0x00	; 0
    30ea:	28 d1       	rcall	.+592    	; 0x333c <fputc>
    30ec:	21 10       	cpse	r2, r1
    30ee:	2a 94       	dec	r2
    30f0:	21 e0       	ldi	r18, 0x01	; 1
    30f2:	82 1a       	sub	r8, r18
    30f4:	91 08       	sbc	r9, r1
    30f6:	81 14       	cp	r8, r1
    30f8:	91 04       	cpc	r9, r1
    30fa:	79 f7       	brne	.-34     	; 0x30da <vfprintf+0x1c4>
    30fc:	e1 c0       	rjmp	.+450    	; 0x32c0 <vfprintf+0x3aa>
    30fe:	84 36       	cpi	r24, 0x64	; 100
    3100:	11 f0       	breq	.+4      	; 0x3106 <vfprintf+0x1f0>
    3102:	89 36       	cpi	r24, 0x69	; 105
    3104:	39 f5       	brne	.+78     	; 0x3154 <vfprintf+0x23e>
    3106:	f8 01       	movw	r30, r16
    3108:	37 fe       	sbrs	r3, 7
    310a:	07 c0       	rjmp	.+14     	; 0x311a <vfprintf+0x204>
    310c:	60 81       	ld	r22, Z
    310e:	71 81       	ldd	r23, Z+1	; 0x01
    3110:	82 81       	ldd	r24, Z+2	; 0x02
    3112:	93 81       	ldd	r25, Z+3	; 0x03
    3114:	0c 5f       	subi	r16, 0xFC	; 252
    3116:	1f 4f       	sbci	r17, 0xFF	; 255
    3118:	08 c0       	rjmp	.+16     	; 0x312a <vfprintf+0x214>
    311a:	60 81       	ld	r22, Z
    311c:	71 81       	ldd	r23, Z+1	; 0x01
    311e:	07 2e       	mov	r0, r23
    3120:	00 0c       	add	r0, r0
    3122:	88 0b       	sbc	r24, r24
    3124:	99 0b       	sbc	r25, r25
    3126:	0e 5f       	subi	r16, 0xFE	; 254
    3128:	1f 4f       	sbci	r17, 0xFF	; 255
    312a:	f3 2d       	mov	r31, r3
    312c:	ff 76       	andi	r31, 0x6F	; 111
    312e:	3f 2e       	mov	r3, r31
    3130:	97 ff       	sbrs	r25, 7
    3132:	09 c0       	rjmp	.+18     	; 0x3146 <vfprintf+0x230>
    3134:	90 95       	com	r25
    3136:	80 95       	com	r24
    3138:	70 95       	com	r23
    313a:	61 95       	neg	r22
    313c:	7f 4f       	sbci	r23, 0xFF	; 255
    313e:	8f 4f       	sbci	r24, 0xFF	; 255
    3140:	9f 4f       	sbci	r25, 0xFF	; 255
    3142:	f0 68       	ori	r31, 0x80	; 128
    3144:	3f 2e       	mov	r3, r31
    3146:	2a e0       	ldi	r18, 0x0A	; 10
    3148:	30 e0       	ldi	r19, 0x00	; 0
    314a:	a3 01       	movw	r20, r6
    314c:	33 d1       	rcall	.+614    	; 0x33b4 <__ultoa_invert>
    314e:	88 2e       	mov	r8, r24
    3150:	86 18       	sub	r8, r6
    3152:	44 c0       	rjmp	.+136    	; 0x31dc <vfprintf+0x2c6>
    3154:	85 37       	cpi	r24, 0x75	; 117
    3156:	31 f4       	brne	.+12     	; 0x3164 <vfprintf+0x24e>
    3158:	23 2d       	mov	r18, r3
    315a:	2f 7e       	andi	r18, 0xEF	; 239
    315c:	b2 2e       	mov	r11, r18
    315e:	2a e0       	ldi	r18, 0x0A	; 10
    3160:	30 e0       	ldi	r19, 0x00	; 0
    3162:	25 c0       	rjmp	.+74     	; 0x31ae <vfprintf+0x298>
    3164:	93 2d       	mov	r25, r3
    3166:	99 7f       	andi	r25, 0xF9	; 249
    3168:	b9 2e       	mov	r11, r25
    316a:	8f 36       	cpi	r24, 0x6F	; 111
    316c:	c1 f0       	breq	.+48     	; 0x319e <vfprintf+0x288>
    316e:	18 f4       	brcc	.+6      	; 0x3176 <vfprintf+0x260>
    3170:	88 35       	cpi	r24, 0x58	; 88
    3172:	79 f0       	breq	.+30     	; 0x3192 <vfprintf+0x27c>
    3174:	ae c0       	rjmp	.+348    	; 0x32d2 <vfprintf+0x3bc>
    3176:	80 37       	cpi	r24, 0x70	; 112
    3178:	19 f0       	breq	.+6      	; 0x3180 <vfprintf+0x26a>
    317a:	88 37       	cpi	r24, 0x78	; 120
    317c:	21 f0       	breq	.+8      	; 0x3186 <vfprintf+0x270>
    317e:	a9 c0       	rjmp	.+338    	; 0x32d2 <vfprintf+0x3bc>
    3180:	e9 2f       	mov	r30, r25
    3182:	e0 61       	ori	r30, 0x10	; 16
    3184:	be 2e       	mov	r11, r30
    3186:	b4 fe       	sbrs	r11, 4
    3188:	0d c0       	rjmp	.+26     	; 0x31a4 <vfprintf+0x28e>
    318a:	fb 2d       	mov	r31, r11
    318c:	f4 60       	ori	r31, 0x04	; 4
    318e:	bf 2e       	mov	r11, r31
    3190:	09 c0       	rjmp	.+18     	; 0x31a4 <vfprintf+0x28e>
    3192:	34 fe       	sbrs	r3, 4
    3194:	0a c0       	rjmp	.+20     	; 0x31aa <vfprintf+0x294>
    3196:	29 2f       	mov	r18, r25
    3198:	26 60       	ori	r18, 0x06	; 6
    319a:	b2 2e       	mov	r11, r18
    319c:	06 c0       	rjmp	.+12     	; 0x31aa <vfprintf+0x294>
    319e:	28 e0       	ldi	r18, 0x08	; 8
    31a0:	30 e0       	ldi	r19, 0x00	; 0
    31a2:	05 c0       	rjmp	.+10     	; 0x31ae <vfprintf+0x298>
    31a4:	20 e1       	ldi	r18, 0x10	; 16
    31a6:	30 e0       	ldi	r19, 0x00	; 0
    31a8:	02 c0       	rjmp	.+4      	; 0x31ae <vfprintf+0x298>
    31aa:	20 e1       	ldi	r18, 0x10	; 16
    31ac:	32 e0       	ldi	r19, 0x02	; 2
    31ae:	f8 01       	movw	r30, r16
    31b0:	b7 fe       	sbrs	r11, 7
    31b2:	07 c0       	rjmp	.+14     	; 0x31c2 <vfprintf+0x2ac>
    31b4:	60 81       	ld	r22, Z
    31b6:	71 81       	ldd	r23, Z+1	; 0x01
    31b8:	82 81       	ldd	r24, Z+2	; 0x02
    31ba:	93 81       	ldd	r25, Z+3	; 0x03
    31bc:	0c 5f       	subi	r16, 0xFC	; 252
    31be:	1f 4f       	sbci	r17, 0xFF	; 255
    31c0:	06 c0       	rjmp	.+12     	; 0x31ce <vfprintf+0x2b8>
    31c2:	60 81       	ld	r22, Z
    31c4:	71 81       	ldd	r23, Z+1	; 0x01
    31c6:	80 e0       	ldi	r24, 0x00	; 0
    31c8:	90 e0       	ldi	r25, 0x00	; 0
    31ca:	0e 5f       	subi	r16, 0xFE	; 254
    31cc:	1f 4f       	sbci	r17, 0xFF	; 255
    31ce:	a3 01       	movw	r20, r6
    31d0:	f1 d0       	rcall	.+482    	; 0x33b4 <__ultoa_invert>
    31d2:	88 2e       	mov	r8, r24
    31d4:	86 18       	sub	r8, r6
    31d6:	fb 2d       	mov	r31, r11
    31d8:	ff 77       	andi	r31, 0x7F	; 127
    31da:	3f 2e       	mov	r3, r31
    31dc:	36 fe       	sbrs	r3, 6
    31de:	0d c0       	rjmp	.+26     	; 0x31fa <vfprintf+0x2e4>
    31e0:	23 2d       	mov	r18, r3
    31e2:	2e 7f       	andi	r18, 0xFE	; 254
    31e4:	a2 2e       	mov	r10, r18
    31e6:	89 14       	cp	r8, r9
    31e8:	58 f4       	brcc	.+22     	; 0x3200 <vfprintf+0x2ea>
    31ea:	34 fe       	sbrs	r3, 4
    31ec:	0b c0       	rjmp	.+22     	; 0x3204 <vfprintf+0x2ee>
    31ee:	32 fc       	sbrc	r3, 2
    31f0:	09 c0       	rjmp	.+18     	; 0x3204 <vfprintf+0x2ee>
    31f2:	83 2d       	mov	r24, r3
    31f4:	8e 7e       	andi	r24, 0xEE	; 238
    31f6:	a8 2e       	mov	r10, r24
    31f8:	05 c0       	rjmp	.+10     	; 0x3204 <vfprintf+0x2ee>
    31fa:	b8 2c       	mov	r11, r8
    31fc:	a3 2c       	mov	r10, r3
    31fe:	03 c0       	rjmp	.+6      	; 0x3206 <vfprintf+0x2f0>
    3200:	b8 2c       	mov	r11, r8
    3202:	01 c0       	rjmp	.+2      	; 0x3206 <vfprintf+0x2f0>
    3204:	b9 2c       	mov	r11, r9
    3206:	a4 fe       	sbrs	r10, 4
    3208:	0f c0       	rjmp	.+30     	; 0x3228 <vfprintf+0x312>
    320a:	fe 01       	movw	r30, r28
    320c:	e8 0d       	add	r30, r8
    320e:	f1 1d       	adc	r31, r1
    3210:	80 81       	ld	r24, Z
    3212:	80 33       	cpi	r24, 0x30	; 48
    3214:	21 f4       	brne	.+8      	; 0x321e <vfprintf+0x308>
    3216:	9a 2d       	mov	r25, r10
    3218:	99 7e       	andi	r25, 0xE9	; 233
    321a:	a9 2e       	mov	r10, r25
    321c:	09 c0       	rjmp	.+18     	; 0x3230 <vfprintf+0x31a>
    321e:	a2 fe       	sbrs	r10, 2
    3220:	06 c0       	rjmp	.+12     	; 0x322e <vfprintf+0x318>
    3222:	b3 94       	inc	r11
    3224:	b3 94       	inc	r11
    3226:	04 c0       	rjmp	.+8      	; 0x3230 <vfprintf+0x31a>
    3228:	8a 2d       	mov	r24, r10
    322a:	86 78       	andi	r24, 0x86	; 134
    322c:	09 f0       	breq	.+2      	; 0x3230 <vfprintf+0x31a>
    322e:	b3 94       	inc	r11
    3230:	a3 fc       	sbrc	r10, 3
    3232:	10 c0       	rjmp	.+32     	; 0x3254 <vfprintf+0x33e>
    3234:	a0 fe       	sbrs	r10, 0
    3236:	06 c0       	rjmp	.+12     	; 0x3244 <vfprintf+0x32e>
    3238:	b2 14       	cp	r11, r2
    323a:	80 f4       	brcc	.+32     	; 0x325c <vfprintf+0x346>
    323c:	28 0c       	add	r2, r8
    323e:	92 2c       	mov	r9, r2
    3240:	9b 18       	sub	r9, r11
    3242:	0d c0       	rjmp	.+26     	; 0x325e <vfprintf+0x348>
    3244:	b2 14       	cp	r11, r2
    3246:	58 f4       	brcc	.+22     	; 0x325e <vfprintf+0x348>
    3248:	b6 01       	movw	r22, r12
    324a:	80 e2       	ldi	r24, 0x20	; 32
    324c:	90 e0       	ldi	r25, 0x00	; 0
    324e:	76 d0       	rcall	.+236    	; 0x333c <fputc>
    3250:	b3 94       	inc	r11
    3252:	f8 cf       	rjmp	.-16     	; 0x3244 <vfprintf+0x32e>
    3254:	b2 14       	cp	r11, r2
    3256:	18 f4       	brcc	.+6      	; 0x325e <vfprintf+0x348>
    3258:	2b 18       	sub	r2, r11
    325a:	02 c0       	rjmp	.+4      	; 0x3260 <vfprintf+0x34a>
    325c:	98 2c       	mov	r9, r8
    325e:	21 2c       	mov	r2, r1
    3260:	a4 fe       	sbrs	r10, 4
    3262:	0f c0       	rjmp	.+30     	; 0x3282 <vfprintf+0x36c>
    3264:	b6 01       	movw	r22, r12
    3266:	80 e3       	ldi	r24, 0x30	; 48
    3268:	90 e0       	ldi	r25, 0x00	; 0
    326a:	68 d0       	rcall	.+208    	; 0x333c <fputc>
    326c:	a2 fe       	sbrs	r10, 2
    326e:	16 c0       	rjmp	.+44     	; 0x329c <vfprintf+0x386>
    3270:	a1 fc       	sbrc	r10, 1
    3272:	03 c0       	rjmp	.+6      	; 0x327a <vfprintf+0x364>
    3274:	88 e7       	ldi	r24, 0x78	; 120
    3276:	90 e0       	ldi	r25, 0x00	; 0
    3278:	02 c0       	rjmp	.+4      	; 0x327e <vfprintf+0x368>
    327a:	88 e5       	ldi	r24, 0x58	; 88
    327c:	90 e0       	ldi	r25, 0x00	; 0
    327e:	b6 01       	movw	r22, r12
    3280:	0c c0       	rjmp	.+24     	; 0x329a <vfprintf+0x384>
    3282:	8a 2d       	mov	r24, r10
    3284:	86 78       	andi	r24, 0x86	; 134
    3286:	51 f0       	breq	.+20     	; 0x329c <vfprintf+0x386>
    3288:	a1 fe       	sbrs	r10, 1
    328a:	02 c0       	rjmp	.+4      	; 0x3290 <vfprintf+0x37a>
    328c:	8b e2       	ldi	r24, 0x2B	; 43
    328e:	01 c0       	rjmp	.+2      	; 0x3292 <vfprintf+0x37c>
    3290:	80 e2       	ldi	r24, 0x20	; 32
    3292:	a7 fc       	sbrc	r10, 7
    3294:	8d e2       	ldi	r24, 0x2D	; 45
    3296:	b6 01       	movw	r22, r12
    3298:	90 e0       	ldi	r25, 0x00	; 0
    329a:	50 d0       	rcall	.+160    	; 0x333c <fputc>
    329c:	89 14       	cp	r8, r9
    329e:	30 f4       	brcc	.+12     	; 0x32ac <vfprintf+0x396>
    32a0:	b6 01       	movw	r22, r12
    32a2:	80 e3       	ldi	r24, 0x30	; 48
    32a4:	90 e0       	ldi	r25, 0x00	; 0
    32a6:	4a d0       	rcall	.+148    	; 0x333c <fputc>
    32a8:	9a 94       	dec	r9
    32aa:	f8 cf       	rjmp	.-16     	; 0x329c <vfprintf+0x386>
    32ac:	8a 94       	dec	r8
    32ae:	f3 01       	movw	r30, r6
    32b0:	e8 0d       	add	r30, r8
    32b2:	f1 1d       	adc	r31, r1
    32b4:	80 81       	ld	r24, Z
    32b6:	b6 01       	movw	r22, r12
    32b8:	90 e0       	ldi	r25, 0x00	; 0
    32ba:	40 d0       	rcall	.+128    	; 0x333c <fputc>
    32bc:	81 10       	cpse	r8, r1
    32be:	f6 cf       	rjmp	.-20     	; 0x32ac <vfprintf+0x396>
    32c0:	22 20       	and	r2, r2
    32c2:	09 f4       	brne	.+2      	; 0x32c6 <vfprintf+0x3b0>
    32c4:	4e ce       	rjmp	.-868    	; 0x2f62 <vfprintf+0x4c>
    32c6:	b6 01       	movw	r22, r12
    32c8:	80 e2       	ldi	r24, 0x20	; 32
    32ca:	90 e0       	ldi	r25, 0x00	; 0
    32cc:	37 d0       	rcall	.+110    	; 0x333c <fputc>
    32ce:	2a 94       	dec	r2
    32d0:	f7 cf       	rjmp	.-18     	; 0x32c0 <vfprintf+0x3aa>
    32d2:	f6 01       	movw	r30, r12
    32d4:	86 81       	ldd	r24, Z+6	; 0x06
    32d6:	97 81       	ldd	r25, Z+7	; 0x07
    32d8:	02 c0       	rjmp	.+4      	; 0x32de <vfprintf+0x3c8>
    32da:	8f ef       	ldi	r24, 0xFF	; 255
    32dc:	9f ef       	ldi	r25, 0xFF	; 255
    32de:	2b 96       	adiw	r28, 0x0b	; 11
    32e0:	0f b6       	in	r0, 0x3f	; 63
    32e2:	f8 94       	cli
    32e4:	de bf       	out	0x3e, r29	; 62
    32e6:	0f be       	out	0x3f, r0	; 63
    32e8:	cd bf       	out	0x3d, r28	; 61
    32ea:	df 91       	pop	r29
    32ec:	cf 91       	pop	r28
    32ee:	1f 91       	pop	r17
    32f0:	0f 91       	pop	r16
    32f2:	ff 90       	pop	r15
    32f4:	ef 90       	pop	r14
    32f6:	df 90       	pop	r13
    32f8:	cf 90       	pop	r12
    32fa:	bf 90       	pop	r11
    32fc:	af 90       	pop	r10
    32fe:	9f 90       	pop	r9
    3300:	8f 90       	pop	r8
    3302:	7f 90       	pop	r7
    3304:	6f 90       	pop	r6
    3306:	5f 90       	pop	r5
    3308:	4f 90       	pop	r4
    330a:	3f 90       	pop	r3
    330c:	2f 90       	pop	r2
    330e:	08 95       	ret

00003310 <strnlen_P>:
    3310:	fc 01       	movw	r30, r24
    3312:	05 90       	lpm	r0, Z+
    3314:	61 50       	subi	r22, 0x01	; 1
    3316:	70 40       	sbci	r23, 0x00	; 0
    3318:	01 10       	cpse	r0, r1
    331a:	d8 f7       	brcc	.-10     	; 0x3312 <strnlen_P+0x2>
    331c:	80 95       	com	r24
    331e:	90 95       	com	r25
    3320:	8e 0f       	add	r24, r30
    3322:	9f 1f       	adc	r25, r31
    3324:	08 95       	ret

00003326 <strnlen>:
    3326:	fc 01       	movw	r30, r24
    3328:	61 50       	subi	r22, 0x01	; 1
    332a:	70 40       	sbci	r23, 0x00	; 0
    332c:	01 90       	ld	r0, Z+
    332e:	01 10       	cpse	r0, r1
    3330:	d8 f7       	brcc	.-10     	; 0x3328 <strnlen+0x2>
    3332:	80 95       	com	r24
    3334:	90 95       	com	r25
    3336:	8e 0f       	add	r24, r30
    3338:	9f 1f       	adc	r25, r31
    333a:	08 95       	ret

0000333c <fputc>:
    333c:	0f 93       	push	r16
    333e:	1f 93       	push	r17
    3340:	cf 93       	push	r28
    3342:	df 93       	push	r29
    3344:	fb 01       	movw	r30, r22
    3346:	23 81       	ldd	r18, Z+3	; 0x03
    3348:	21 fd       	sbrc	r18, 1
    334a:	03 c0       	rjmp	.+6      	; 0x3352 <fputc+0x16>
    334c:	8f ef       	ldi	r24, 0xFF	; 255
    334e:	9f ef       	ldi	r25, 0xFF	; 255
    3350:	2c c0       	rjmp	.+88     	; 0x33aa <fputc+0x6e>
    3352:	22 ff       	sbrs	r18, 2
    3354:	16 c0       	rjmp	.+44     	; 0x3382 <fputc+0x46>
    3356:	46 81       	ldd	r20, Z+6	; 0x06
    3358:	57 81       	ldd	r21, Z+7	; 0x07
    335a:	24 81       	ldd	r18, Z+4	; 0x04
    335c:	35 81       	ldd	r19, Z+5	; 0x05
    335e:	42 17       	cp	r20, r18
    3360:	53 07       	cpc	r21, r19
    3362:	44 f4       	brge	.+16     	; 0x3374 <fputc+0x38>
    3364:	a0 81       	ld	r26, Z
    3366:	b1 81       	ldd	r27, Z+1	; 0x01
    3368:	9d 01       	movw	r18, r26
    336a:	2f 5f       	subi	r18, 0xFF	; 255
    336c:	3f 4f       	sbci	r19, 0xFF	; 255
    336e:	31 83       	std	Z+1, r19	; 0x01
    3370:	20 83       	st	Z, r18
    3372:	8c 93       	st	X, r24
    3374:	26 81       	ldd	r18, Z+6	; 0x06
    3376:	37 81       	ldd	r19, Z+7	; 0x07
    3378:	2f 5f       	subi	r18, 0xFF	; 255
    337a:	3f 4f       	sbci	r19, 0xFF	; 255
    337c:	37 83       	std	Z+7, r19	; 0x07
    337e:	26 83       	std	Z+6, r18	; 0x06
    3380:	14 c0       	rjmp	.+40     	; 0x33aa <fputc+0x6e>
    3382:	8b 01       	movw	r16, r22
    3384:	ec 01       	movw	r28, r24
    3386:	fb 01       	movw	r30, r22
    3388:	00 84       	ldd	r0, Z+8	; 0x08
    338a:	f1 85       	ldd	r31, Z+9	; 0x09
    338c:	e0 2d       	mov	r30, r0
    338e:	19 95       	eicall
    3390:	89 2b       	or	r24, r25
    3392:	e1 f6       	brne	.-72     	; 0x334c <fputc+0x10>
    3394:	d8 01       	movw	r26, r16
    3396:	16 96       	adiw	r26, 0x06	; 6
    3398:	8d 91       	ld	r24, X+
    339a:	9c 91       	ld	r25, X
    339c:	17 97       	sbiw	r26, 0x07	; 7
    339e:	01 96       	adiw	r24, 0x01	; 1
    33a0:	17 96       	adiw	r26, 0x07	; 7
    33a2:	9c 93       	st	X, r25
    33a4:	8e 93       	st	-X, r24
    33a6:	16 97       	sbiw	r26, 0x06	; 6
    33a8:	ce 01       	movw	r24, r28
    33aa:	df 91       	pop	r29
    33ac:	cf 91       	pop	r28
    33ae:	1f 91       	pop	r17
    33b0:	0f 91       	pop	r16
    33b2:	08 95       	ret

000033b4 <__ultoa_invert>:
    33b4:	fa 01       	movw	r30, r20
    33b6:	aa 27       	eor	r26, r26
    33b8:	28 30       	cpi	r18, 0x08	; 8
    33ba:	51 f1       	breq	.+84     	; 0x3410 <__ultoa_invert+0x5c>
    33bc:	20 31       	cpi	r18, 0x10	; 16
    33be:	81 f1       	breq	.+96     	; 0x3420 <__ultoa_invert+0x6c>
    33c0:	e8 94       	clt
    33c2:	6f 93       	push	r22
    33c4:	6e 7f       	andi	r22, 0xFE	; 254
    33c6:	6e 5f       	subi	r22, 0xFE	; 254
    33c8:	7f 4f       	sbci	r23, 0xFF	; 255
    33ca:	8f 4f       	sbci	r24, 0xFF	; 255
    33cc:	9f 4f       	sbci	r25, 0xFF	; 255
    33ce:	af 4f       	sbci	r26, 0xFF	; 255
    33d0:	b1 e0       	ldi	r27, 0x01	; 1
    33d2:	3e d0       	rcall	.+124    	; 0x3450 <__ultoa_invert+0x9c>
    33d4:	b4 e0       	ldi	r27, 0x04	; 4
    33d6:	3c d0       	rcall	.+120    	; 0x3450 <__ultoa_invert+0x9c>
    33d8:	67 0f       	add	r22, r23
    33da:	78 1f       	adc	r23, r24
    33dc:	89 1f       	adc	r24, r25
    33de:	9a 1f       	adc	r25, r26
    33e0:	a1 1d       	adc	r26, r1
    33e2:	68 0f       	add	r22, r24
    33e4:	79 1f       	adc	r23, r25
    33e6:	8a 1f       	adc	r24, r26
    33e8:	91 1d       	adc	r25, r1
    33ea:	a1 1d       	adc	r26, r1
    33ec:	6a 0f       	add	r22, r26
    33ee:	71 1d       	adc	r23, r1
    33f0:	81 1d       	adc	r24, r1
    33f2:	91 1d       	adc	r25, r1
    33f4:	a1 1d       	adc	r26, r1
    33f6:	20 d0       	rcall	.+64     	; 0x3438 <__ultoa_invert+0x84>
    33f8:	09 f4       	brne	.+2      	; 0x33fc <__ultoa_invert+0x48>
    33fa:	68 94       	set
    33fc:	3f 91       	pop	r19
    33fe:	2a e0       	ldi	r18, 0x0A	; 10
    3400:	26 9f       	mul	r18, r22
    3402:	11 24       	eor	r1, r1
    3404:	30 19       	sub	r19, r0
    3406:	30 5d       	subi	r19, 0xD0	; 208
    3408:	31 93       	st	Z+, r19
    340a:	de f6       	brtc	.-74     	; 0x33c2 <__ultoa_invert+0xe>
    340c:	cf 01       	movw	r24, r30
    340e:	08 95       	ret
    3410:	46 2f       	mov	r20, r22
    3412:	47 70       	andi	r20, 0x07	; 7
    3414:	40 5d       	subi	r20, 0xD0	; 208
    3416:	41 93       	st	Z+, r20
    3418:	b3 e0       	ldi	r27, 0x03	; 3
    341a:	0f d0       	rcall	.+30     	; 0x343a <__ultoa_invert+0x86>
    341c:	c9 f7       	brne	.-14     	; 0x3410 <__ultoa_invert+0x5c>
    341e:	f6 cf       	rjmp	.-20     	; 0x340c <__ultoa_invert+0x58>
    3420:	46 2f       	mov	r20, r22
    3422:	4f 70       	andi	r20, 0x0F	; 15
    3424:	40 5d       	subi	r20, 0xD0	; 208
    3426:	4a 33       	cpi	r20, 0x3A	; 58
    3428:	18 f0       	brcs	.+6      	; 0x3430 <__ultoa_invert+0x7c>
    342a:	49 5d       	subi	r20, 0xD9	; 217
    342c:	31 fd       	sbrc	r19, 1
    342e:	40 52       	subi	r20, 0x20	; 32
    3430:	41 93       	st	Z+, r20
    3432:	02 d0       	rcall	.+4      	; 0x3438 <__ultoa_invert+0x84>
    3434:	a9 f7       	brne	.-22     	; 0x3420 <__ultoa_invert+0x6c>
    3436:	ea cf       	rjmp	.-44     	; 0x340c <__ultoa_invert+0x58>
    3438:	b4 e0       	ldi	r27, 0x04	; 4
    343a:	a6 95       	lsr	r26
    343c:	97 95       	ror	r25
    343e:	87 95       	ror	r24
    3440:	77 95       	ror	r23
    3442:	67 95       	ror	r22
    3444:	ba 95       	dec	r27
    3446:	c9 f7       	brne	.-14     	; 0x343a <__ultoa_invert+0x86>
    3448:	00 97       	sbiw	r24, 0x00	; 0
    344a:	61 05       	cpc	r22, r1
    344c:	71 05       	cpc	r23, r1
    344e:	08 95       	ret
    3450:	9b 01       	movw	r18, r22
    3452:	ac 01       	movw	r20, r24
    3454:	0a 2e       	mov	r0, r26
    3456:	06 94       	lsr	r0
    3458:	57 95       	ror	r21
    345a:	47 95       	ror	r20
    345c:	37 95       	ror	r19
    345e:	27 95       	ror	r18
    3460:	ba 95       	dec	r27
    3462:	c9 f7       	brne	.-14     	; 0x3456 <__ultoa_invert+0xa2>
    3464:	62 0f       	add	r22, r18
    3466:	73 1f       	adc	r23, r19
    3468:	84 1f       	adc	r24, r20
    346a:	95 1f       	adc	r25, r21
    346c:	a0 1d       	adc	r26, r0
    346e:	08 95       	ret

00003470 <_exit>:
    3470:	f8 94       	cli

00003472 <__stop_program>:
    3472:	ff cf       	rjmp	.-2      	; 0x3472 <__stop_program>
